
kernel.elf:     file format elf32-littleriscv


Disassembly of section .text:

80000000 <boot>:
80000000:	800417b7          	lui	a5,0x80041
80000004:	11c78793          	add	a5,a5,284 # 8004111c <__stack_top>
80000008:	00078113          	mv	sp,a5
8000000c:	300027f3          	csrr	a5,mstatus
80000010:	ffffe737          	lui	a4,0xffffe
80000014:	7ff70713          	add	a4,a4,2047 # ffffe7ff <__free_ram_end+0x7bfbc7ff>
80000018:	00e7f7b3          	and	a5,a5,a4
8000001c:	00001737          	lui	a4,0x1
80000020:	80070713          	add	a4,a4,-2048 # 800 <_binary_shell_bin_size-0xfc70>
80000024:	00e7e7b3          	or	a5,a5,a4
80000028:	30079073          	csrw	mstatus,a5
8000002c:	800007b7          	lui	a5,0x80000
80000030:	64078793          	add	a5,a5,1600 # 80000640 <kernel_main>
80000034:	34179073          	csrw	mepc,a5
80000038:	00000793          	li	a5,0
8000003c:	18079073          	csrw	satp,a5
80000040:	000107b7          	lui	a5,0x10
80000044:	fff78793          	add	a5,a5,-1 # ffff <_binary_shell_bin_size-0x471>
80000048:	30279073          	csrw	medeleg,a5
8000004c:	30379073          	csrw	mideleg,a5
80000050:	104027f3          	csrr	a5,sie
80000054:	2227e793          	or	a5,a5,546
80000058:	10479073          	csrw	sie,a5
8000005c:	fff00793          	li	a5,-1
80000060:	3b079073          	csrw	pmpaddr0,a5
80000064:	00f00793          	li	a5,15
80000068:	3a079073          	csrw	pmpcfg0,a5
8000006c:	30200073          	mret

80000070 <kernel_entry>:
80000070:	14011173          	csrrw	sp,sscratch,sp
80000074:	f8410113          	add	sp,sp,-124
80000078:	00112023          	sw	ra,0(sp)
8000007c:	00312223          	sw	gp,4(sp)
80000080:	00412423          	sw	tp,8(sp)
80000084:	00512623          	sw	t0,12(sp)
80000088:	00612823          	sw	t1,16(sp)
8000008c:	00712a23          	sw	t2,20(sp)
80000090:	01c12c23          	sw	t3,24(sp)
80000094:	01d12e23          	sw	t4,28(sp)
80000098:	03e12023          	sw	t5,32(sp)
8000009c:	03f12223          	sw	t6,36(sp)
800000a0:	02a12423          	sw	a0,40(sp)
800000a4:	02b12623          	sw	a1,44(sp)
800000a8:	02c12823          	sw	a2,48(sp)
800000ac:	02d12a23          	sw	a3,52(sp)
800000b0:	02e12c23          	sw	a4,56(sp)
800000b4:	02f12e23          	sw	a5,60(sp)
800000b8:	05012023          	sw	a6,64(sp)
800000bc:	05112223          	sw	a7,68(sp)
800000c0:	04812423          	sw	s0,72(sp)
800000c4:	04912623          	sw	s1,76(sp)
800000c8:	05212823          	sw	s2,80(sp)
800000cc:	05312a23          	sw	s3,84(sp)
800000d0:	05412c23          	sw	s4,88(sp)
800000d4:	05512e23          	sw	s5,92(sp)
800000d8:	07612023          	sw	s6,96(sp)
800000dc:	07712223          	sw	s7,100(sp)
800000e0:	07812423          	sw	s8,104(sp)
800000e4:	07912623          	sw	s9,108(sp)
800000e8:	07a12823          	sw	s10,112(sp)
800000ec:	07b12a23          	sw	s11,116(sp)
800000f0:	14002573          	csrr	a0,sscratch
800000f4:	06a12c23          	sw	a0,120(sp)
800000f8:	07c10513          	add	a0,sp,124
800000fc:	14051073          	csrw	sscratch,a0
80000100:	00010513          	mv	a0,sp
80000104:	6d4000ef          	jal	800007d8 <handle_trap>
80000108:	00012083          	lw	ra,0(sp)
8000010c:	00412183          	lw	gp,4(sp)
80000110:	00812203          	lw	tp,8(sp)
80000114:	00c12283          	lw	t0,12(sp)
80000118:	01012303          	lw	t1,16(sp)
8000011c:	01412383          	lw	t2,20(sp)
80000120:	01812e03          	lw	t3,24(sp)
80000124:	01c12e83          	lw	t4,28(sp)
80000128:	02012f03          	lw	t5,32(sp)
8000012c:	02412f83          	lw	t6,36(sp)
80000130:	02812503          	lw	a0,40(sp)
80000134:	02c12583          	lw	a1,44(sp)
80000138:	03012603          	lw	a2,48(sp)
8000013c:	03412683          	lw	a3,52(sp)
80000140:	03812703          	lw	a4,56(sp)
80000144:	03c12783          	lw	a5,60(sp)
80000148:	04012803          	lw	a6,64(sp)
8000014c:	04412883          	lw	a7,68(sp)
80000150:	04812403          	lw	s0,72(sp)
80000154:	04c12483          	lw	s1,76(sp)
80000158:	05012903          	lw	s2,80(sp)
8000015c:	05412983          	lw	s3,84(sp)
80000160:	05812a03          	lw	s4,88(sp)
80000164:	05c12a83          	lw	s5,92(sp)
80000168:	06012b03          	lw	s6,96(sp)
8000016c:	06412b83          	lw	s7,100(sp)
80000170:	06812c03          	lw	s8,104(sp)
80000174:	06c12c83          	lw	s9,108(sp)
80000178:	07012d03          	lw	s10,112(sp)
8000017c:	07412d83          	lw	s11,116(sp)
80000180:	07812103          	lw	sp,120(sp)
80000184:	10200073          	sret

80000188 <user_entry>:
80000188:	800017b7          	lui	a5,0x80001
8000018c:	c2078793          	add	a5,a5,-992 # 80000c20 <_binary_shell_bin_start>
80000190:	02000713          	li	a4,32
80000194:	14179073          	csrw	sepc,a5
80000198:	10071073          	csrw	sstatus,a4
8000019c:	10200073          	sret

800001a0 <alloc_pages>:
800001a0:	800117b7          	lui	a5,0x80011
800001a4:	ff010113          	add	sp,sp,-16
800001a8:	00812423          	sw	s0,8(sp)
800001ac:	0907a403          	lw	s0,144(a5) # 80011090 <next_paddr.0>
800001b0:	00c51613          	sll	a2,a0,0xc
800001b4:	00112623          	sw	ra,12(sp)
800001b8:	00860733          	add	a4,a2,s0
800001bc:	08e7a823          	sw	a4,144(a5)
800001c0:	840427b7          	lui	a5,0x84042
800001c4:	00078793          	mv	a5,a5
800001c8:	02e7f063          	bgeu	a5,a4,800001e8 <alloc_pages+0x48>
800001cc:	800015b7          	lui	a1,0x80001
800001d0:	80001537          	lui	a0,0x80001
800001d4:	01400613          	li	a2,20
800001d8:	af058593          	add	a1,a1,-1296 # 80000af0 <getchar+0x18>
800001dc:	afc50513          	add	a0,a0,-1284 # 80000afc <getchar+0x24>
800001e0:	704000ef          	jal	800008e4 <printf>
800001e4:	0000006f          	j	800001e4 <alloc_pages+0x44>
800001e8:	00040513          	mv	a0,s0
800001ec:	00000593          	li	a1,0
800001f0:	644000ef          	jal	80000834 <memset>
800001f4:	00c12083          	lw	ra,12(sp)
800001f8:	00040513          	mv	a0,s0
800001fc:	00812403          	lw	s0,8(sp)
80000200:	01010113          	add	sp,sp,16
80000204:	00008067          	ret

80000208 <map_page>:
80000208:	0165d793          	srl	a5,a1,0x16
8000020c:	fd010113          	add	sp,sp,-48
80000210:	00279793          	sll	a5,a5,0x2
80000214:	01312e23          	sw	s3,28(sp)
80000218:	00f509b3          	add	s3,a0,a5
8000021c:	0009a783          	lw	a5,0(s3)
80000220:	02812423          	sw	s0,40(sp)
80000224:	02912223          	sw	s1,36(sp)
80000228:	02112623          	sw	ra,44(sp)
8000022c:	03212023          	sw	s2,32(sp)
80000230:	0017f713          	and	a4,a5,1
80000234:	00060413          	mv	s0,a2
80000238:	00058493          	mv	s1,a1
8000023c:	00a7d613          	srl	a2,a5,0xa
80000240:	04070463          	beqz	a4,80000288 <map_page+0x80>
80000244:	00c4d713          	srl	a4,s1,0xc
80000248:	00c45793          	srl	a5,s0,0xc
8000024c:	3ff77713          	and	a4,a4,1023
80000250:	00a79793          	sll	a5,a5,0xa
80000254:	02c12083          	lw	ra,44(sp)
80000258:	02812403          	lw	s0,40(sp)
8000025c:	00c61613          	sll	a2,a2,0xc
80000260:	00271713          	sll	a4,a4,0x2
80000264:	00d7e7b3          	or	a5,a5,a3
80000268:	00e60633          	add	a2,a2,a4
8000026c:	0017e793          	or	a5,a5,1
80000270:	00f62023          	sw	a5,0(a2)
80000274:	02412483          	lw	s1,36(sp)
80000278:	02012903          	lw	s2,32(sp)
8000027c:	01c12983          	lw	s3,28(sp)
80000280:	03010113          	add	sp,sp,48
80000284:	00008067          	ret
80000288:	80011737          	lui	a4,0x80011
8000028c:	09072903          	lw	s2,144(a4) # 80011090 <next_paddr.0>
80000290:	000017b7          	lui	a5,0x1
80000294:	00f907b3          	add	a5,s2,a5
80000298:	08f72823          	sw	a5,144(a4)
8000029c:	84042737          	lui	a4,0x84042
800002a0:	00070713          	mv	a4,a4
800002a4:	02f77063          	bgeu	a4,a5,800002c4 <map_page+0xbc>
800002a8:	800015b7          	lui	a1,0x80001
800002ac:	80001537          	lui	a0,0x80001
800002b0:	01400613          	li	a2,20
800002b4:	af058593          	add	a1,a1,-1296 # 80000af0 <getchar+0x18>
800002b8:	afc50513          	add	a0,a0,-1284 # 80000afc <getchar+0x24>
800002bc:	628000ef          	jal	800008e4 <printf>
800002c0:	0000006f          	j	800002c0 <map_page+0xb8>
800002c4:	00001637          	lui	a2,0x1
800002c8:	00000593          	li	a1,0
800002cc:	00090513          	mv	a0,s2
800002d0:	00d12623          	sw	a3,12(sp)
800002d4:	560000ef          	jal	80000834 <memset>
800002d8:	00c95613          	srl	a2,s2,0xc
800002dc:	00a61793          	sll	a5,a2,0xa
800002e0:	0017e793          	or	a5,a5,1
800002e4:	00c12683          	lw	a3,12(sp)
800002e8:	00f9a023          	sw	a5,0(s3)
800002ec:	f59ff06f          	j	80000244 <map_page+0x3c>

800002f0 <switch_context>:
800002f0:	fcc10113          	add	sp,sp,-52
800002f4:	00112023          	sw	ra,0(sp)
800002f8:	00812223          	sw	s0,4(sp)
800002fc:	00912423          	sw	s1,8(sp)
80000300:	01212623          	sw	s2,12(sp)
80000304:	01312823          	sw	s3,16(sp)
80000308:	01412a23          	sw	s4,20(sp)
8000030c:	01512c23          	sw	s5,24(sp)
80000310:	01612e23          	sw	s6,28(sp)
80000314:	03712023          	sw	s7,32(sp)
80000318:	03812223          	sw	s8,36(sp)
8000031c:	03912423          	sw	s9,40(sp)
80000320:	03a12623          	sw	s10,44(sp)
80000324:	03b12823          	sw	s11,48(sp)
80000328:	00252023          	sw	sp,0(a0)
8000032c:	0005a103          	lw	sp,0(a1)
80000330:	00012083          	lw	ra,0(sp)
80000334:	00412403          	lw	s0,4(sp)
80000338:	00812483          	lw	s1,8(sp)
8000033c:	00c12903          	lw	s2,12(sp)
80000340:	01012983          	lw	s3,16(sp)
80000344:	01412a03          	lw	s4,20(sp)
80000348:	01812a83          	lw	s5,24(sp)
8000034c:	01c12b03          	lw	s6,28(sp)
80000350:	02012b83          	lw	s7,32(sp)
80000354:	02412c03          	lw	s8,36(sp)
80000358:	02812c83          	lw	s9,40(sp)
8000035c:	02c12d03          	lw	s10,44(sp)
80000360:	03012d83          	lw	s11,48(sp)
80000364:	03410113          	add	sp,sp,52
80000368:	00008067          	ret

8000036c <create_process>:
8000036c:	fc010113          	add	sp,sp,-64
80000370:	800117b7          	lui	a5,0x80011
80000374:	000026b7          	lui	a3,0x2
80000378:	02812c23          	sw	s0,56(sp)
8000037c:	03212823          	sw	s2,48(sp)
80000380:	03312623          	sw	s3,44(sp)
80000384:	03412423          	sw	s4,40(sp)
80000388:	02112e23          	sw	ra,60(sp)
8000038c:	09478a13          	add	s4,a5,148 # 80011094 <procs>
80000390:	02912a23          	sw	s1,52(sp)
80000394:	03512223          	sw	s5,36(sp)
80000398:	03612023          	sw	s6,32(sp)
8000039c:	01712e23          	sw	s7,28(sp)
800003a0:	01812c23          	sw	s8,24(sp)
800003a4:	01912a23          	sw	s9,20(sp)
800003a8:	01a12823          	sw	s10,16(sp)
800003ac:	01b12623          	sw	s11,12(sp)
800003b0:	00050993          	mv	s3,a0
800003b4:	00058913          	mv	s2,a1
800003b8:	09478793          	add	a5,a5,148
800003bc:	00000413          	li	s0,0
800003c0:	01068693          	add	a3,a3,16 # 2010 <_binary_shell_bin_size-0xe460>
800003c4:	00800613          	li	a2,8
800003c8:	0047a703          	lw	a4,4(a5)
800003cc:	00d787b3          	add	a5,a5,a3
800003d0:	02070463          	beqz	a4,800003f8 <create_process+0x8c>
800003d4:	00140413          	add	s0,s0,1
800003d8:	fec418e3          	bne	s0,a2,800003c8 <create_process+0x5c>
800003dc:	800015b7          	lui	a1,0x80001
800003e0:	80001537          	lui	a0,0x80001
800003e4:	0b900613          	li	a2,185
800003e8:	af058593          	add	a1,a1,-1296 # 80000af0 <getchar+0x18>
800003ec:	b1c50513          	add	a0,a0,-1252 # 80000b1c <getchar+0x44>
800003f0:	4f4000ef          	jal	800008e4 <printf>
800003f4:	0000006f          	j	800003f4 <create_process+0x88>
800003f8:	80011bb7          	lui	s7,0x80011
800003fc:	00941c13          	sll	s8,s0,0x9
80000400:	090baa83          	lw	s5,144(s7) # 80011090 <next_paddr.0>
80000404:	008c0b33          	add	s6,s8,s0
80000408:	004b1b13          	sll	s6,s6,0x4
8000040c:	016a0b33          	add	s6,s4,s6
80000410:	000027b7          	lui	a5,0x2
80000414:	00001737          	lui	a4,0x1
80000418:	800006b7          	lui	a3,0x80000
8000041c:	00fb07b3          	add	a5,s6,a5
80000420:	00ea8733          	add	a4,s5,a4
80000424:	18868693          	add	a3,a3,392 # 80000188 <user_entry>
80000428:	84042cb7          	lui	s9,0x84042
8000042c:	0007a623          	sw	zero,12(a5) # 200c <_binary_shell_bin_size-0xe464>
80000430:	0007a423          	sw	zero,8(a5)
80000434:	0007a223          	sw	zero,4(a5)
80000438:	0007a023          	sw	zero,0(a5)
8000043c:	fe07ae23          	sw	zero,-4(a5)
80000440:	fe07ac23          	sw	zero,-8(a5)
80000444:	fe07aa23          	sw	zero,-12(a5)
80000448:	fe07a823          	sw	zero,-16(a5)
8000044c:	fe07a623          	sw	zero,-20(a5)
80000450:	fe07a423          	sw	zero,-24(a5)
80000454:	fe07a223          	sw	zero,-28(a5)
80000458:	fe07a023          	sw	zero,-32(a5)
8000045c:	fcd7ae23          	sw	a3,-36(a5)
80000460:	08eba823          	sw	a4,144(s7)
80000464:	000c8c93          	mv	s9,s9
80000468:	08ece263          	bltu	s9,a4,800004ec <create_process+0x180>
8000046c:	800004b7          	lui	s1,0x80000
80000470:	00001637          	lui	a2,0x1
80000474:	00000593          	li	a1,0
80000478:	000a8513          	mv	a0,s5
8000047c:	00048493          	mv	s1,s1
80000480:	3b4000ef          	jal	80000834 <memset>
80000484:	00001d37          	lui	s10,0x1
80000488:	0394f063          	bgeu	s1,s9,800004a8 <create_process+0x13c>
8000048c:	00048613          	mv	a2,s1
80000490:	00048593          	mv	a1,s1
80000494:	00e00693          	li	a3,14
80000498:	01a484b3          	add	s1,s1,s10
8000049c:	000a8513          	mv	a0,s5
800004a0:	d69ff0ef          	jal	80000208 <map_page>
800004a4:	ff94e4e3          	bltu	s1,s9,8000048c <create_process+0x120>
800004a8:	08090c63          	beqz	s2,80000540 <create_process+0x1d4>
800004ac:	00000d13          	li	s10,0
800004b0:	00001db7          	lui	s11,0x1
800004b4:	090ba483          	lw	s1,144(s7)
800004b8:	00001637          	lui	a2,0x1
800004bc:	00000593          	li	a1,0
800004c0:	01b487b3          	add	a5,s1,s11
800004c4:	08fba823          	sw	a5,144(s7)
800004c8:	00048513          	mv	a0,s1
800004cc:	02fcfe63          	bgeu	s9,a5,80000508 <create_process+0x19c>
800004d0:	800015b7          	lui	a1,0x80001
800004d4:	80001537          	lui	a0,0x80001
800004d8:	01400613          	li	a2,20
800004dc:	af058593          	add	a1,a1,-1296 # 80000af0 <getchar+0x18>
800004e0:	afc50513          	add	a0,a0,-1284 # 80000afc <getchar+0x24>
800004e4:	400000ef          	jal	800008e4 <printf>
800004e8:	0000006f          	j	800004e8 <create_process+0x17c>
800004ec:	800015b7          	lui	a1,0x80001
800004f0:	80001537          	lui	a0,0x80001
800004f4:	01400613          	li	a2,20
800004f8:	af058593          	add	a1,a1,-1296 # 80000af0 <getchar+0x18>
800004fc:	afc50513          	add	a0,a0,-1284 # 80000afc <getchar+0x24>
80000500:	3e4000ef          	jal	800008e4 <printf>
80000504:	0000006f          	j	80000504 <create_process+0x198>
80000508:	32c000ef          	jal	80000834 <memset>
8000050c:	01a985b3          	add	a1,s3,s10
80000510:	00001637          	lui	a2,0x1
80000514:	00048513          	mv	a0,s1
80000518:	338000ef          	jal	80000850 <memcpy>
8000051c:	800015b7          	lui	a1,0x80001
80000520:	c2058593          	add	a1,a1,-992 # 80000c20 <_binary_shell_bin_start>
80000524:	00bd05b3          	add	a1,s10,a1
80000528:	01e00693          	li	a3,30
8000052c:	01bd0d33          	add	s10,s10,s11
80000530:	00048613          	mv	a2,s1
80000534:	000a8513          	mv	a0,s5
80000538:	cd1ff0ef          	jal	80000208 <map_page>
8000053c:	f72d6ce3          	bltu	s10,s2,800004b4 <create_process+0x148>
80000540:	008c07b3          	add	a5,s8,s0
80000544:	00479793          	sll	a5,a5,0x4
80000548:	00fa0a33          	add	s4,s4,a5
8000054c:	00140413          	add	s0,s0,1
80000550:	000027b7          	lui	a5,0x2
80000554:	008a2023          	sw	s0,0(s4)
80000558:	03c12083          	lw	ra,60(sp)
8000055c:	03812403          	lw	s0,56(sp)
80000560:	fdc78793          	add	a5,a5,-36 # 1fdc <_binary_shell_bin_size-0xe494>
80000564:	00fb07b3          	add	a5,s6,a5
80000568:	00100713          	li	a4,1
8000056c:	015a2623          	sw	s5,12(s4)
80000570:	00ea2223          	sw	a4,4(s4)
80000574:	00fa2423          	sw	a5,8(s4)
80000578:	03412483          	lw	s1,52(sp)
8000057c:	03012903          	lw	s2,48(sp)
80000580:	02c12983          	lw	s3,44(sp)
80000584:	02812a03          	lw	s4,40(sp)
80000588:	02412a83          	lw	s5,36(sp)
8000058c:	01c12b83          	lw	s7,28(sp)
80000590:	01812c03          	lw	s8,24(sp)
80000594:	01412c83          	lw	s9,20(sp)
80000598:	01012d03          	lw	s10,16(sp)
8000059c:	00c12d83          	lw	s11,12(sp)
800005a0:	000b0513          	mv	a0,s6
800005a4:	02012b03          	lw	s6,32(sp)
800005a8:	04010113          	add	sp,sp,64
800005ac:	00008067          	ret

800005b0 <yield>:
800005b0:	80021337          	lui	t1,0x80021
800005b4:	11832503          	lw	a0,280(t1) # 80021118 <current_proc>
800005b8:	800217b7          	lui	a5,0x80021
800005bc:	1147a583          	lw	a1,276(a5) # 80021114 <idle_proc>
800005c0:	00052683          	lw	a3,0(a0)
800005c4:	80011637          	lui	a2,0x80011
800005c8:	09460613          	add	a2,a2,148 # 80011094 <procs>
800005cc:	00868893          	add	a7,a3,8
800005d0:	00100813          	li	a6,1
800005d4:	41f6d793          	sra	a5,a3,0x1f
800005d8:	01d7d793          	srl	a5,a5,0x1d
800005dc:	00f68733          	add	a4,a3,a5
800005e0:	00777713          	and	a4,a4,7
800005e4:	40f70733          	sub	a4,a4,a5
800005e8:	00971793          	sll	a5,a4,0x9
800005ec:	00e787b3          	add	a5,a5,a4
800005f0:	00479793          	sll	a5,a5,0x4
800005f4:	00f607b3          	add	a5,a2,a5
800005f8:	0047a703          	lw	a4,4(a5)
800005fc:	00168693          	add	a3,a3,1
80000600:	03070663          	beq	a4,a6,8000062c <yield+0x7c>
80000604:	fd1698e3          	bne	a3,a7,800005d4 <yield+0x24>
80000608:	02b50a63          	beq	a0,a1,8000063c <yield+0x8c>
8000060c:	000027b7          	lui	a5,0x2
80000610:	01078793          	add	a5,a5,16 # 2010 <_binary_shell_bin_size-0xe460>
80000614:	10b32c23          	sw	a1,280(t1)
80000618:	00f587b3          	add	a5,a1,a5
8000061c:	14079073          	csrw	sscratch,a5
80000620:	00858593          	add	a1,a1,8
80000624:	00850513          	add	a0,a0,8
80000628:	cc9ff06f          	j	800002f0 <switch_context>
8000062c:	0007a703          	lw	a4,0(a5)
80000630:	fce05ae3          	blez	a4,80000604 <yield+0x54>
80000634:	00078593          	mv	a1,a5
80000638:	fcb51ae3          	bne	a0,a1,8000060c <yield+0x5c>
8000063c:	00008067          	ret

80000640 <kernel_main>:
80000640:	80011537          	lui	a0,0x80011
80000644:	800217b7          	lui	a5,0x80021
80000648:	11c78793          	add	a5,a5,284 # 8002111c <__bss_end>
8000064c:	09450613          	add	a2,a0,148 # 80011094 <procs>
80000650:	ff010113          	add	sp,sp,-16
80000654:	40c78633          	sub	a2,a5,a2
80000658:	00000593          	li	a1,0
8000065c:	09450513          	add	a0,a0,148
80000660:	00112623          	sw	ra,12(sp)
80000664:	1d0000ef          	jal	80000834 <memset>
80000668:	80001537          	lui	a0,0x80001
8000066c:	b4450513          	add	a0,a0,-1212 # 80000b44 <getchar+0x6c>
80000670:	274000ef          	jal	800008e4 <printf>
80000674:	800007b7          	lui	a5,0x80000
80000678:	07078793          	add	a5,a5,112 # 80000070 <kernel_entry>
8000067c:	10579073          	csrw	stvec,a5
80000680:	00000593          	li	a1,0
80000684:	00000513          	li	a0,0
80000688:	ce5ff0ef          	jal	8000036c <create_process>
8000068c:	80021737          	lui	a4,0x80021
80000690:	10a72a23          	sw	a0,276(a4) # 80021114 <idle_proc>
80000694:	fff00713          	li	a4,-1
80000698:	00050793          	mv	a5,a0
8000069c:	00e52023          	sw	a4,0(a0)
800006a0:	000105b7          	lui	a1,0x10
800006a4:	80001537          	lui	a0,0x80001
800006a8:	47058593          	add	a1,a1,1136 # 10470 <_binary_shell_bin_size>
800006ac:	80021737          	lui	a4,0x80021
800006b0:	c2050513          	add	a0,a0,-992 # 80000c20 <_binary_shell_bin_start>
800006b4:	10f72c23          	sw	a5,280(a4) # 80021118 <current_proc>
800006b8:	cb5ff0ef          	jal	8000036c <create_process>
800006bc:	ef5ff0ef          	jal	800005b0 <yield>
800006c0:	800015b7          	lui	a1,0x80001
800006c4:	80001537          	lui	a0,0x80001
800006c8:	13200613          	li	a2,306
800006cc:	af058593          	add	a1,a1,-1296 # 80000af0 <getchar+0x18>
800006d0:	b4850513          	add	a0,a0,-1208 # 80000b48 <getchar+0x70>
800006d4:	210000ef          	jal	800008e4 <printf>
800006d8:	0000006f          	j	800006d8 <kernel_main+0x98>

800006dc <handle_syscall>:
800006dc:	ff010113          	add	sp,sp,-16
800006e0:	00812423          	sw	s0,8(sp)
800006e4:	00912223          	sw	s1,4(sp)
800006e8:	00112623          	sw	ra,12(sp)
800006ec:	03554703          	lbu	a4,53(a0)
800006f0:	03454603          	lbu	a2,52(a0)
800006f4:	03654783          	lbu	a5,54(a0)
800006f8:	03754683          	lbu	a3,55(a0)
800006fc:	00871713          	sll	a4,a4,0x8
80000700:	00c76733          	or	a4,a4,a2
80000704:	01079793          	sll	a5,a5,0x10
80000708:	00e7e7b3          	or	a5,a5,a4
8000070c:	01869693          	sll	a3,a3,0x18
80000710:	00f6e6b3          	or	a3,a3,a5
80000714:	00200493          	li	s1,2
80000718:	00050413          	mv	s0,a0
8000071c:	02968863          	beq	a3,s1,8000074c <handle_syscall+0x70>
80000720:	00300793          	li	a5,3
80000724:	06f68a63          	beq	a3,a5,80000798 <handle_syscall+0xbc>
80000728:	00100793          	li	a5,1
8000072c:	04f68a63          	beq	a3,a5,80000780 <handle_syscall+0xa4>
80000730:	800015b7          	lui	a1,0x80001
80000734:	80001537          	lui	a0,0x80001
80000738:	11200613          	li	a2,274
8000073c:	af058593          	add	a1,a1,-1296 # 80000af0 <getchar+0x18>
80000740:	ba050513          	add	a0,a0,-1120 # 80000ba0 <getchar+0xc8>
80000744:	1a0000ef          	jal	800008e4 <printf>
80000748:	0000006f          	j	80000748 <handle_syscall+0x6c>
8000074c:	38c000ef          	jal	80000ad8 <getchar>
80000750:	00855693          	srl	a3,a0,0x8
80000754:	01055713          	srl	a4,a0,0x10
80000758:	01855793          	srl	a5,a0,0x18
8000075c:	00c12083          	lw	ra,12(sp)
80000760:	02a40423          	sb	a0,40(s0)
80000764:	02d404a3          	sb	a3,41(s0)
80000768:	02e40523          	sb	a4,42(s0)
8000076c:	02f405a3          	sb	a5,43(s0)
80000770:	00812403          	lw	s0,8(sp)
80000774:	00412483          	lw	s1,4(sp)
80000778:	01010113          	add	sp,sp,16
8000077c:	00008067          	ret
80000780:	00812403          	lw	s0,8(sp)
80000784:	00c12083          	lw	ra,12(sp)
80000788:	00412483          	lw	s1,4(sp)
8000078c:	02854503          	lbu	a0,40(a0)
80000790:	01010113          	add	sp,sp,16
80000794:	32c0006f          	j	80000ac0 <putchar>
80000798:	80021437          	lui	s0,0x80021
8000079c:	11842783          	lw	a5,280(s0) # 80021118 <current_proc>
800007a0:	80001537          	lui	a0,0x80001
800007a4:	b7050513          	add	a0,a0,-1168 # 80000b70 <getchar+0x98>
800007a8:	0007a583          	lw	a1,0(a5)
800007ac:	138000ef          	jal	800008e4 <printf>
800007b0:	11842783          	lw	a5,280(s0)
800007b4:	0097a223          	sw	s1,4(a5)
800007b8:	df9ff0ef          	jal	800005b0 <yield>
800007bc:	800015b7          	lui	a1,0x80001
800007c0:	80001537          	lui	a0,0x80001
800007c4:	11000613          	li	a2,272
800007c8:	af058593          	add	a1,a1,-1296 # 80000af0 <getchar+0x18>
800007cc:	b8450513          	add	a0,a0,-1148 # 80000b84 <getchar+0xac>
800007d0:	114000ef          	jal	800008e4 <printf>
800007d4:	0000006f          	j	800007d4 <handle_syscall+0xf8>

800007d8 <handle_trap>:
800007d8:	ff010113          	add	sp,sp,-16
800007dc:	00112623          	sw	ra,12(sp)
800007e0:	00812423          	sw	s0,8(sp)
800007e4:	142026f3          	csrr	a3,scause
800007e8:	14302773          	csrr	a4,stval
800007ec:	14102473          	csrr	s0,sepc
800007f0:	00800793          	li	a5,8
800007f4:	02f68263          	beq	a3,a5,80000818 <handle_trap+0x40>
800007f8:	800015b7          	lui	a1,0x80001
800007fc:	80001537          	lui	a0,0x80001
80000800:	00040793          	mv	a5,s0
80000804:	11e00613          	li	a2,286
80000808:	af058593          	add	a1,a1,-1296 # 80000af0 <getchar+0x18>
8000080c:	bcc50513          	add	a0,a0,-1076 # 80000bcc <getchar+0xf4>
80000810:	0d4000ef          	jal	800008e4 <printf>
80000814:	0000006f          	j	80000814 <handle_trap+0x3c>
80000818:	ec5ff0ef          	jal	800006dc <handle_syscall>
8000081c:	00440413          	add	s0,s0,4
80000820:	14141073          	csrw	sepc,s0
80000824:	00c12083          	lw	ra,12(sp)
80000828:	00812403          	lw	s0,8(sp)
8000082c:	01010113          	add	sp,sp,16
80000830:	00008067          	ret

80000834 <memset>:
80000834:	00060c63          	beqz	a2,8000084c <memset+0x18>
80000838:	00c50633          	add	a2,a0,a2
8000083c:	00050793          	mv	a5,a0
80000840:	00178793          	add	a5,a5,1
80000844:	feb78fa3          	sb	a1,-1(a5)
80000848:	fec79ce3          	bne	a5,a2,80000840 <memset+0xc>
8000084c:	00008067          	ret

80000850 <memcpy>:
80000850:	02060063          	beqz	a2,80000870 <memcpy+0x20>
80000854:	00c50633          	add	a2,a0,a2
80000858:	00050793          	mv	a5,a0
8000085c:	0005c703          	lbu	a4,0(a1)
80000860:	00178793          	add	a5,a5,1
80000864:	00158593          	add	a1,a1,1
80000868:	fee78fa3          	sb	a4,-1(a5)
8000086c:	fec798e3          	bne	a5,a2,8000085c <memcpy+0xc>
80000870:	00008067          	ret

80000874 <strcpy>:
80000874:	0005c783          	lbu	a5,0(a1)
80000878:	00050713          	mv	a4,a0
8000087c:	00078c63          	beqz	a5,80000894 <strcpy+0x20>
80000880:	00f70023          	sb	a5,0(a4)
80000884:	0015c783          	lbu	a5,1(a1)
80000888:	00158593          	add	a1,a1,1
8000088c:	00170713          	add	a4,a4,1
80000890:	fe0798e3          	bnez	a5,80000880 <strcpy+0xc>
80000894:	00070023          	sb	zero,0(a4)
80000898:	00008067          	ret

8000089c <strcmp>:
8000089c:	00054783          	lbu	a5,0(a0)
800008a0:	00079c63          	bnez	a5,800008b8 <strcmp+0x1c>
800008a4:	0380006f          	j	800008dc <strcmp+0x40>
800008a8:	02f71063          	bne	a4,a5,800008c8 <strcmp+0x2c>
800008ac:	00054783          	lbu	a5,0(a0)
800008b0:	02078063          	beqz	a5,800008d0 <strcmp+0x34>
800008b4:	00068593          	mv	a1,a3
800008b8:	0005c703          	lbu	a4,0(a1)
800008bc:	00150513          	add	a0,a0,1
800008c0:	00158693          	add	a3,a1,1
800008c4:	fe0712e3          	bnez	a4,800008a8 <strcmp+0xc>
800008c8:	40e78533          	sub	a0,a5,a4
800008cc:	00008067          	ret
800008d0:	0015c703          	lbu	a4,1(a1)
800008d4:	40e78533          	sub	a0,a5,a4
800008d8:	00008067          	ret
800008dc:	0005c703          	lbu	a4,0(a1)
800008e0:	fe9ff06f          	j	800008c8 <strcmp+0x2c>

800008e4 <printf>:
800008e4:	fa010113          	add	sp,sp,-96
800008e8:	02812c23          	sw	s0,56(sp)
800008ec:	04f12a23          	sw	a5,84(sp)
800008f0:	02112e23          	sw	ra,60(sp)
800008f4:	02912a23          	sw	s1,52(sp)
800008f8:	03212823          	sw	s2,48(sp)
800008fc:	03312623          	sw	s3,44(sp)
80000900:	03412423          	sw	s4,40(sp)
80000904:	03512223          	sw	s5,36(sp)
80000908:	03612023          	sw	s6,32(sp)
8000090c:	01712e23          	sw	s7,28(sp)
80000910:	01812c23          	sw	s8,24(sp)
80000914:	04b12223          	sw	a1,68(sp)
80000918:	04c12423          	sw	a2,72(sp)
8000091c:	04d12623          	sw	a3,76(sp)
80000920:	04e12823          	sw	a4,80(sp)
80000924:	05012c23          	sw	a6,88(sp)
80000928:	05112e23          	sw	a7,92(sp)
8000092c:	00050413          	mv	s0,a0
80000930:	00054503          	lbu	a0,0(a0)
80000934:	04410793          	add	a5,sp,68
80000938:	00f12223          	sw	a5,4(sp)
8000093c:	04050263          	beqz	a0,80000980 <printf+0x9c>
80000940:	02500913          	li	s2,37
80000944:	07000993          	li	s3,112
80000948:	07300a93          	li	s5,115
8000094c:	07800a13          	li	s4,120
80000950:	0d251c63          	bne	a0,s2,80000a28 <printf+0x144>
80000954:	00144783          	lbu	a5,1(s0)
80000958:	0d378c63          	beq	a5,s3,80000a30 <printf+0x14c>
8000095c:	04f9ea63          	bltu	s3,a5,800009b0 <printf+0xcc>
80000960:	12078e63          	beqz	a5,80000a9c <printf+0x1b8>
80000964:	01279663          	bne	a5,s2,80000970 <printf+0x8c>
80000968:	02500513          	li	a0,37
8000096c:	154000ef          	jal	80000ac0 <putchar>
80000970:	00140413          	add	s0,s0,1
80000974:	00144503          	lbu	a0,1(s0)
80000978:	00140413          	add	s0,s0,1
8000097c:	fc051ae3          	bnez	a0,80000950 <printf+0x6c>
80000980:	03c12083          	lw	ra,60(sp)
80000984:	03812403          	lw	s0,56(sp)
80000988:	03412483          	lw	s1,52(sp)
8000098c:	03012903          	lw	s2,48(sp)
80000990:	02c12983          	lw	s3,44(sp)
80000994:	02812a03          	lw	s4,40(sp)
80000998:	02412a83          	lw	s5,36(sp)
8000099c:	02012b03          	lw	s6,32(sp)
800009a0:	01c12b83          	lw	s7,28(sp)
800009a4:	01812c03          	lw	s8,24(sp)
800009a8:	06010113          	add	sp,sp,96
800009ac:	00008067          	ret
800009b0:	0d578063          	beq	a5,s5,80000a70 <printf+0x18c>
800009b4:	fb479ee3          	bne	a5,s4,80000970 <printf+0x8c>
800009b8:	00412783          	lw	a5,4(sp)
800009bc:	80001b37          	lui	s6,0x80001
800009c0:	00000693          	li	a3,0
800009c4:	0007a583          	lw	a1,0(a5)
800009c8:	00478793          	add	a5,a5,4
800009cc:	00f12223          	sw	a5,4(sp)
800009d0:	41f5d713          	sra	a4,a1,0x1f
800009d4:	00b747b3          	xor	a5,a4,a1
800009d8:	40e787b3          	sub	a5,a5,a4
800009dc:	00810b93          	add	s7,sp,8
800009e0:	c0cb0b13          	add	s6,s6,-1012 # 80000c0c <getchar+0x134>
800009e4:	00f7f713          	and	a4,a5,15
800009e8:	00eb0733          	add	a4,s6,a4
800009ec:	00074603          	lbu	a2,0(a4)
800009f0:	00068493          	mv	s1,a3
800009f4:	00168693          	add	a3,a3,1
800009f8:	00db8733          	add	a4,s7,a3
800009fc:	fec70fa3          	sb	a2,-1(a4)
80000a00:	0047d793          	srl	a5,a5,0x4
80000a04:	fe0790e3          	bnez	a5,800009e4 <printf+0x100>
80000a08:	0a05c063          	bltz	a1,80000aa8 <printf+0x1c4>
80000a0c:	009b84b3          	add	s1,s7,s1
80000a10:	0004c503          	lbu	a0,0(s1) # 80000000 <boot>
80000a14:	0ac000ef          	jal	80000ac0 <putchar>
80000a18:	00048793          	mv	a5,s1
80000a1c:	fff48493          	add	s1,s1,-1
80000a20:	fefb98e3          	bne	s7,a5,80000a10 <printf+0x12c>
80000a24:	f4dff06f          	j	80000970 <printf+0x8c>
80000a28:	098000ef          	jal	80000ac0 <putchar>
80000a2c:	f49ff06f          	j	80000974 <printf+0x90>
80000a30:	00412783          	lw	a5,4(sp)
80000a34:	80001b37          	lui	s6,0x80001
80000a38:	01c00493          	li	s1,28
80000a3c:	0007ab83          	lw	s7,0(a5)
80000a40:	00478793          	add	a5,a5,4
80000a44:	00f12223          	sw	a5,4(sp)
80000a48:	c0cb0b13          	add	s6,s6,-1012 # 80000c0c <getchar+0x134>
80000a4c:	ffc00c13          	li	s8,-4
80000a50:	409bd7b3          	sra	a5,s7,s1
80000a54:	00f7f793          	and	a5,a5,15
80000a58:	00fb07b3          	add	a5,s6,a5
80000a5c:	0007c503          	lbu	a0,0(a5)
80000a60:	ffc48493          	add	s1,s1,-4
80000a64:	05c000ef          	jal	80000ac0 <putchar>
80000a68:	ff8494e3          	bne	s1,s8,80000a50 <printf+0x16c>
80000a6c:	f05ff06f          	j	80000970 <printf+0x8c>
80000a70:	00412783          	lw	a5,4(sp)
80000a74:	0007a483          	lw	s1,0(a5)
80000a78:	00478793          	add	a5,a5,4
80000a7c:	00f12223          	sw	a5,4(sp)
80000a80:	0004c503          	lbu	a0,0(s1)
80000a84:	ee0506e3          	beqz	a0,80000970 <printf+0x8c>
80000a88:	00148493          	add	s1,s1,1
80000a8c:	034000ef          	jal	80000ac0 <putchar>
80000a90:	0004c503          	lbu	a0,0(s1)
80000a94:	fe051ae3          	bnez	a0,80000a88 <printf+0x1a4>
80000a98:	ed9ff06f          	j	80000970 <printf+0x8c>
80000a9c:	02500513          	li	a0,37
80000aa0:	020000ef          	jal	80000ac0 <putchar>
80000aa4:	eddff06f          	j	80000980 <printf+0x9c>
80000aa8:	01068793          	add	a5,a3,16
80000aac:	002787b3          	add	a5,a5,sp
80000ab0:	02d00713          	li	a4,45
80000ab4:	fee78c23          	sb	a4,-8(a5)
80000ab8:	00068493          	mv	s1,a3
80000abc:	f51ff06f          	j	80000a0c <printf+0x128>

80000ac0 <putchar>:
80000ac0:	10000737          	lui	a4,0x10000
80000ac4:	00574783          	lbu	a5,5(a4) # 10000005 <_binary_shell_bin_size+0xffefb95>
80000ac8:	0207f793          	and	a5,a5,32
80000acc:	fe078ce3          	beqz	a5,80000ac4 <putchar+0x4>
80000ad0:	00a70023          	sb	a0,0(a4)
80000ad4:	00008067          	ret

80000ad8 <getchar>:
80000ad8:	10000737          	lui	a4,0x10000
80000adc:	00574783          	lbu	a5,5(a4) # 10000005 <_binary_shell_bin_size+0xffefb95>
80000ae0:	0017f793          	and	a5,a5,1
80000ae4:	fe078ce3          	beqz	a5,80000adc <getchar+0x4>
80000ae8:	00074503          	lbu	a0,0(a4)
80000aec:	00008067          	ret

Disassembly of section .rodata:

80000af0 <.rodata>:
80000af0:	6e72656b          	.4byte	0x6e72656b
80000af4:	6c65                	.2byte	0x6c65
80000af6:	632e                	.2byte	0x632e
80000af8:	0000                	.2byte	0x0
80000afa:	0000                	.2byte	0x0
80000afc:	4150                	.2byte	0x4150
80000afe:	494e                	.2byte	0x494e
80000b00:	25203a43          	.4byte	0x25203a43
80000b04:	78253a73          	csrrc	s4,0x782,a0
80000b08:	203a                	.2byte	0x203a
80000b0a:	2074756f          	jal	a0,80048510 <__free_ram+0x6510>
80000b0e:	6d20666f          	jal	a2,800071e0 <_binary_shell_bin_start+0x65c0>
80000b12:	6d65                	.2byte	0x6d65
80000b14:	0a79726f          	jal	tp,800983ba <__free_ram+0x563ba>
80000b18:	0000                	.2byte	0x0
80000b1a:	0000                	.2byte	0x0
80000b1c:	4150                	.2byte	0x4150
80000b1e:	494e                	.2byte	0x494e
80000b20:	25203a43          	.4byte	0x25203a43
80000b24:	78253a73          	csrrc	s4,0x782,a0
80000b28:	203a                	.2byte	0x203a
80000b2a:	6f6e                	.2byte	0x6f6e
80000b2c:	6620                	.2byte	0x6620
80000b2e:	6572                	.2byte	0x6572
80000b30:	2065                	.2byte	0x2065
80000b32:	7270                	.2byte	0x7270
80000b34:	7365636f          	jal	t1,8005726a <__free_ram+0x1526a>
80000b38:	6c732073          	csrs	0x6c7,t1
80000b3c:	0a73746f          	jal	s0,800383e2 <__bss_end+0x172c6>
80000b40:	0000                	.2byte	0x0
80000b42:	0000                	.2byte	0x0
80000b44:	0a0a                	.2byte	0xa0a
80000b46:	0000                	.2byte	0x0
80000b48:	4150                	.2byte	0x4150
80000b4a:	494e                	.2byte	0x494e
80000b4c:	25203a43          	.4byte	0x25203a43
80000b50:	78253a73          	csrrc	s4,0x782,a0
80000b54:	203a                	.2byte	0x203a
80000b56:	74697773          	csrrc	a4,0x746,18
80000b5a:	64656863          	bltu	a0,t1,800011aa <_binary_shell_bin_start+0x58a>
80000b5e:	7420                	.2byte	0x7420
80000b60:	6469206f          	j	800931a6 <__free_ram+0x511a6>
80000b64:	656c                	.2byte	0x656c
80000b66:	7020                	.2byte	0x7020
80000b68:	6f72                	.2byte	0x6f72
80000b6a:	73736563          	bltu	t1,s7,80001294 <_binary_shell_bin_start+0x674>
80000b6e:	000a                	.2byte	0xa
80000b70:	7270                	.2byte	0x7270
80000b72:	7365636f          	jal	t1,800572a8 <__free_ram+0x152a8>
80000b76:	64252073          	csrs	0x642,a0
80000b7a:	6520                	.2byte	0x6520
80000b7c:	6978                	.2byte	0x6978
80000b7e:	6574                	.2byte	0x6574
80000b80:	0a64                	.2byte	0xa64
80000b82:	0000                	.2byte	0x0
80000b84:	4150                	.2byte	0x4150
80000b86:	494e                	.2byte	0x494e
80000b88:	25203a43          	.4byte	0x25203a43
80000b8c:	78253a73          	csrrc	s4,0x782,a0
80000b90:	203a                	.2byte	0x203a
80000b92:	6e75                	.2byte	0x6e75
80000b94:	6572                	.2byte	0x6572
80000b96:	6361                	.2byte	0x6361
80000b98:	6168                	.2byte	0x6168
80000b9a:	6c62                	.2byte	0x6c62
80000b9c:	0a65                	.2byte	0xa65
80000b9e:	0000                	.2byte	0x0
80000ba0:	4150                	.2byte	0x4150
80000ba2:	494e                	.2byte	0x494e
80000ba4:	25203a43          	.4byte	0x25203a43
80000ba8:	78253a73          	csrrc	s4,0x782,a0
80000bac:	203a                	.2byte	0x203a
80000bae:	6e75                	.2byte	0x6e75
80000bb0:	7865                	.2byte	0x7865
80000bb2:	6570                	.2byte	0x6570
80000bb4:	64657463          	bgeu	a0,t1,800011fc <_binary_shell_bin_start+0x5dc>
80000bb8:	7320                	.2byte	0x7320
80000bba:	7379                	.2byte	0x7379
80000bbc:	6c6c6163          	bltu	s8,t1,8000127e <_binary_shell_bin_start+0x65e>
80000bc0:	6120                	.2byte	0x6120
80000bc2:	78253d33          	.4byte	0x78253d33
80000bc6:	0a0a                	.2byte	0xa0a
80000bc8:	0000                	.2byte	0x0
80000bca:	0000                	.2byte	0x0
80000bcc:	4150                	.2byte	0x4150
80000bce:	494e                	.2byte	0x494e
80000bd0:	25203a43          	.4byte	0x25203a43
80000bd4:	78253a73          	csrrc	s4,0x782,a0
80000bd8:	203a                	.2byte	0x203a
80000bda:	6e75                	.2byte	0x6e75
80000bdc:	7865                	.2byte	0x7865
80000bde:	6570                	.2byte	0x6570
80000be0:	64657463          	bgeu	a0,t1,80001228 <_binary_shell_bin_start+0x608>
80000be4:	7420                	.2byte	0x7420
80000be6:	6172                	.2byte	0x6172
80000be8:	2070                	.2byte	0x2070
80000bea:	75616373          	csrrs	t1,0x756,2
80000bee:	253d6573          	csrrs	a0,0x253,26
80000bf2:	2c78                	.2byte	0x2c78
80000bf4:	7320                	.2byte	0x7320
80000bf6:	7674                	.2byte	0x7674
80000bf8:	6c61                	.2byte	0x6c61
80000bfa:	253d                	.2byte	0x253d
80000bfc:	2c78                	.2byte	0x2c78
80000bfe:	7320                	.2byte	0x7320
80000c00:	7065                	.2byte	0x7065
80000c02:	78253d63          	.4byte	0x78253d63
80000c06:	0a0a                	.2byte	0xa0a
80000c08:	0000                	.2byte	0x0
80000c0a:	0000                	.2byte	0x0
80000c0c:	3130                	.2byte	0x3130
80000c0e:	3332                	.2byte	0x3332
80000c10:	3534                	.2byte	0x3534
80000c12:	3736                	.2byte	0x3736
80000c14:	3938                	.2byte	0x3938
80000c16:	6261                	.2byte	0x6261
80000c18:	66656463          	bltu	a0,t1,80001280 <_binary_shell_bin_start+0x660>
	...

Disassembly of section .data:

80000c20 <_binary_shell_bin_start>:
80000c20:	800117b7          	lui	a5,0x80011
80000c24:	09078793          	add	a5,a5,144 # 80011090 <_binary_shell_bin_end>
80000c28:	00078113          	mv	sp,a5
80000c2c:	008000ef          	jal	80000c34 <_binary_shell_bin_start+0x14>
80000c30:	114000ef          	jal	80000d44 <_binary_shell_bin_start+0x124>
80000c34:	f4010113          	add	sp,sp,-192
80000c38:	0b212823          	sw	s2,176(sp)
80000c3c:	0b312623          	sw	s3,172(sp)
80000c40:	0b412423          	sw	s4,168(sp)
80000c44:	0b512223          	sw	s5,164(sp)
80000c48:	0b612023          	sw	s6,160(sp)
80000c4c:	09712e23          	sw	s7,156(sp)
80000c50:	09812c23          	sw	s8,152(sp)
80000c54:	09912a23          	sw	s9,148(sp)
80000c58:	09a12823          	sw	s10,144(sp)
80000c5c:	0a112e23          	sw	ra,188(sp)
80000c60:	0a812c23          	sw	s0,184(sp)
80000c64:	0a912a23          	sw	s1,180(sp)
80000c68:	09b12623          	sw	s11,140(sp)
80000c6c:	80001a37          	lui	s4,0x80001
80000c70:	80001b37          	lui	s6,0x80001
80000c74:	80001ab7          	lui	s5,0x80001
80000c78:	80001bb7          	lui	s7,0x80001
80000c7c:	07f00913          	li	s2,127
80000c80:	00d00993          	li	s3,13
80000c84:	80001c37          	lui	s8,0x80001
80000c88:	80001cb7          	lui	s9,0x80001
80000c8c:	80001d37          	lui	s10,0x80001
80000c90:	014a0513          	add	a0,s4,20 # 80001014 <_binary_shell_bin_start+0x3f4>
80000c94:	1a4000ef          	jal	80000e38 <_binary_shell_bin_start+0x218>
80000c98:	00010d93          	mv	s11,sp
80000c9c:	00000493          	li	s1,0
80000ca0:	0100006f          	j	80000cb0 <_binary_shell_bin_start+0x90>
80000ca4:	008d8023          	sb	s0,0(s11) # 1000 <_binary_shell_bin_size-0xf470>
80000ca8:	00148493          	add	s1,s1,1
80000cac:	001d8d93          	add	s11,s11,1
80000cb0:	0c0000ef          	jal	80000d70 <_binary_shell_bin_start+0x150>
80000cb4:	0ff57413          	zext.b	s0,a0
80000cb8:	00040513          	mv	a0,s0
80000cbc:	0a0000ef          	jal	80000d5c <_binary_shell_bin_start+0x13c>
80000cc0:	05248c63          	beq	s1,s2,80000d18 <_binary_shell_bin_start+0xf8>
80000cc4:	ff3410e3          	bne	s0,s3,80000ca4 <_binary_shell_bin_start+0x84>
80000cc8:	030b0513          	add	a0,s6,48 # 80001030 <_binary_shell_bin_start+0x410>
80000ccc:	16c000ef          	jal	80000e38 <_binary_shell_bin_start+0x218>
80000cd0:	08048793          	add	a5,s1,128
80000cd4:	002784b3          	add	s1,a5,sp
80000cd8:	034a8593          	add	a1,s5,52 # 80001034 <_binary_shell_bin_start+0x414>
80000cdc:	00010513          	mv	a0,sp
80000ce0:	f8048023          	sb	zero,-128(s1)
80000ce4:	10c000ef          	jal	80000df0 <_binary_shell_bin_start+0x1d0>
80000ce8:	02050263          	beqz	a0,80000d0c <_binary_shell_bin_start+0xec>
80000cec:	058b8593          	add	a1,s7,88 # 80001058 <_binary_shell_bin_start+0x438>
80000cf0:	00010513          	mv	a0,sp
80000cf4:	0fc000ef          	jal	80000df0 <_binary_shell_bin_start+0x1d0>
80000cf8:	02050663          	beqz	a0,80000d24 <_binary_shell_bin_start+0x104>
80000cfc:	00010593          	mv	a1,sp
80000d00:	060c0513          	add	a0,s8,96 # 80001060 <_binary_shell_bin_start+0x440>
80000d04:	134000ef          	jal	80000e38 <_binary_shell_bin_start+0x218>
80000d08:	f89ff06f          	j	80000c90 <_binary_shell_bin_start+0x70>
80000d0c:	03cc8513          	add	a0,s9,60 # 8000103c <_binary_shell_bin_start+0x41c>
80000d10:	128000ef          	jal	80000e38 <_binary_shell_bin_start+0x218>
80000d14:	f7dff06f          	j	80000c90 <_binary_shell_bin_start+0x70>
80000d18:	018d0513          	add	a0,s10,24 # 80001018 <_binary_shell_bin_start+0x3f8>
80000d1c:	11c000ef          	jal	80000e38 <_binary_shell_bin_start+0x218>
80000d20:	f71ff06f          	j	80000c90 <_binary_shell_bin_start+0x70>
80000d24:	020000ef          	jal	80000d44 <_binary_shell_bin_start+0x124>
80000d28:	00050793          	mv	a5,a0
80000d2c:	00058513          	mv	a0,a1
80000d30:	00060593          	mv	a1,a2
80000d34:	00068613          	mv	a2,a3
80000d38:	00078693          	mv	a3,a5
80000d3c:	00000073          	ecall
80000d40:	00008067          	ret
80000d44:	00000513          	li	a0,0
80000d48:	00000593          	li	a1,0
80000d4c:	00000613          	li	a2,0
80000d50:	00300693          	li	a3,3
80000d54:	00000073          	ecall
80000d58:	0000006f          	j	80000d58 <_binary_shell_bin_start+0x138>
80000d5c:	00000593          	li	a1,0
80000d60:	00000613          	li	a2,0
80000d64:	00100693          	li	a3,1
80000d68:	00000073          	ecall
80000d6c:	00008067          	ret
80000d70:	00000513          	li	a0,0
80000d74:	00000593          	li	a1,0
80000d78:	00000613          	li	a2,0
80000d7c:	00200693          	li	a3,2
80000d80:	00000073          	ecall
80000d84:	00008067          	ret
80000d88:	00060c63          	beqz	a2,80000da0 <_binary_shell_bin_start+0x180>
80000d8c:	00c50633          	add	a2,a0,a2
80000d90:	00050793          	mv	a5,a0
80000d94:	00178793          	add	a5,a5,1
80000d98:	feb78fa3          	sb	a1,-1(a5)
80000d9c:	fec79ce3          	bne	a5,a2,80000d94 <_binary_shell_bin_start+0x174>
80000da0:	00008067          	ret
80000da4:	02060063          	beqz	a2,80000dc4 <_binary_shell_bin_start+0x1a4>
80000da8:	00c50633          	add	a2,a0,a2
80000dac:	00050793          	mv	a5,a0
80000db0:	0005c703          	lbu	a4,0(a1)
80000db4:	00178793          	add	a5,a5,1
80000db8:	00158593          	add	a1,a1,1
80000dbc:	fee78fa3          	sb	a4,-1(a5)
80000dc0:	fec798e3          	bne	a5,a2,80000db0 <_binary_shell_bin_start+0x190>
80000dc4:	00008067          	ret
80000dc8:	0005c783          	lbu	a5,0(a1)
80000dcc:	00050713          	mv	a4,a0
80000dd0:	00078c63          	beqz	a5,80000de8 <_binary_shell_bin_start+0x1c8>
80000dd4:	00f70023          	sb	a5,0(a4)
80000dd8:	0015c783          	lbu	a5,1(a1)
80000ddc:	00158593          	add	a1,a1,1
80000de0:	00170713          	add	a4,a4,1
80000de4:	fe0798e3          	bnez	a5,80000dd4 <_binary_shell_bin_start+0x1b4>
80000de8:	00070023          	sb	zero,0(a4)
80000dec:	00008067          	ret
80000df0:	00054783          	lbu	a5,0(a0)
80000df4:	00079c63          	bnez	a5,80000e0c <_binary_shell_bin_start+0x1ec>
80000df8:	0380006f          	j	80000e30 <_binary_shell_bin_start+0x210>
80000dfc:	02f71063          	bne	a4,a5,80000e1c <_binary_shell_bin_start+0x1fc>
80000e00:	00054783          	lbu	a5,0(a0)
80000e04:	02078063          	beqz	a5,80000e24 <_binary_shell_bin_start+0x204>
80000e08:	00068593          	mv	a1,a3
80000e0c:	0005c703          	lbu	a4,0(a1)
80000e10:	00150513          	add	a0,a0,1
80000e14:	00158693          	add	a3,a1,1
80000e18:	fe0712e3          	bnez	a4,80000dfc <_binary_shell_bin_start+0x1dc>
80000e1c:	40e78533          	sub	a0,a5,a4
80000e20:	00008067          	ret
80000e24:	0015c703          	lbu	a4,1(a1)
80000e28:	40e78533          	sub	a0,a5,a4
80000e2c:	00008067          	ret
80000e30:	0005c703          	lbu	a4,0(a1)
80000e34:	fe9ff06f          	j	80000e1c <_binary_shell_bin_start+0x1fc>
80000e38:	fa010113          	add	sp,sp,-96
80000e3c:	02812c23          	sw	s0,56(sp)
80000e40:	04f12a23          	sw	a5,84(sp)
80000e44:	02112e23          	sw	ra,60(sp)
80000e48:	02912a23          	sw	s1,52(sp)
80000e4c:	03212823          	sw	s2,48(sp)
80000e50:	03312623          	sw	s3,44(sp)
80000e54:	03412423          	sw	s4,40(sp)
80000e58:	03512223          	sw	s5,36(sp)
80000e5c:	03612023          	sw	s6,32(sp)
80000e60:	01712e23          	sw	s7,28(sp)
80000e64:	01812c23          	sw	s8,24(sp)
80000e68:	04b12223          	sw	a1,68(sp)
80000e6c:	04c12423          	sw	a2,72(sp)
80000e70:	04d12623          	sw	a3,76(sp)
80000e74:	04e12823          	sw	a4,80(sp)
80000e78:	05012c23          	sw	a6,88(sp)
80000e7c:	05112e23          	sw	a7,92(sp)
80000e80:	00050413          	mv	s0,a0
80000e84:	00054503          	lbu	a0,0(a0)
80000e88:	04410793          	add	a5,sp,68
80000e8c:	00f12223          	sw	a5,4(sp)
80000e90:	04050263          	beqz	a0,80000ed4 <_binary_shell_bin_start+0x2b4>
80000e94:	02500913          	li	s2,37
80000e98:	07000993          	li	s3,112
80000e9c:	07300a93          	li	s5,115
80000ea0:	07800a13          	li	s4,120
80000ea4:	0d251c63          	bne	a0,s2,80000f7c <_binary_shell_bin_start+0x35c>
80000ea8:	00144783          	lbu	a5,1(s0)
80000eac:	0d378c63          	beq	a5,s3,80000f84 <_binary_shell_bin_start+0x364>
80000eb0:	04f9ea63          	bltu	s3,a5,80000f04 <_binary_shell_bin_start+0x2e4>
80000eb4:	12078e63          	beqz	a5,80000ff0 <_binary_shell_bin_start+0x3d0>
80000eb8:	01279663          	bne	a5,s2,80000ec4 <_binary_shell_bin_start+0x2a4>
80000ebc:	02500513          	li	a0,37
80000ec0:	e9dff0ef          	jal	80000d5c <_binary_shell_bin_start+0x13c>
80000ec4:	00140413          	add	s0,s0,1
80000ec8:	00144503          	lbu	a0,1(s0)
80000ecc:	00140413          	add	s0,s0,1
80000ed0:	fc051ae3          	bnez	a0,80000ea4 <_binary_shell_bin_start+0x284>
80000ed4:	03c12083          	lw	ra,60(sp)
80000ed8:	03812403          	lw	s0,56(sp)
80000edc:	03412483          	lw	s1,52(sp)
80000ee0:	03012903          	lw	s2,48(sp)
80000ee4:	02c12983          	lw	s3,44(sp)
80000ee8:	02812a03          	lw	s4,40(sp)
80000eec:	02412a83          	lw	s5,36(sp)
80000ef0:	02012b03          	lw	s6,32(sp)
80000ef4:	01c12b83          	lw	s7,28(sp)
80000ef8:	01812c03          	lw	s8,24(sp)
80000efc:	06010113          	add	sp,sp,96
80000f00:	00008067          	ret
80000f04:	0d578063          	beq	a5,s5,80000fc4 <_binary_shell_bin_start+0x3a4>
80000f08:	fb479ee3          	bne	a5,s4,80000ec4 <_binary_shell_bin_start+0x2a4>
80000f0c:	00412783          	lw	a5,4(sp)
80000f10:	80001b37          	lui	s6,0x80001
80000f14:	00000693          	li	a3,0
80000f18:	0007a583          	lw	a1,0(a5)
80000f1c:	00478793          	add	a5,a5,4
80000f20:	00f12223          	sw	a5,4(sp)
80000f24:	41f5d713          	sra	a4,a1,0x1f
80000f28:	00b747b3          	xor	a5,a4,a1
80000f2c:	40e787b3          	sub	a5,a5,a4
80000f30:	00810b93          	add	s7,sp,8
80000f34:	078b0b13          	add	s6,s6,120 # 80001078 <_binary_shell_bin_start+0x458>
80000f38:	00f7f713          	and	a4,a5,15
80000f3c:	00eb0733          	add	a4,s6,a4
80000f40:	00074603          	lbu	a2,0(a4)
80000f44:	00068493          	mv	s1,a3
80000f48:	00168693          	add	a3,a3,1
80000f4c:	00db8733          	add	a4,s7,a3
80000f50:	fec70fa3          	sb	a2,-1(a4)
80000f54:	0047d793          	srl	a5,a5,0x4
80000f58:	fe0790e3          	bnez	a5,80000f38 <_binary_shell_bin_start+0x318>
80000f5c:	0a05c063          	bltz	a1,80000ffc <_binary_shell_bin_start+0x3dc>
80000f60:	009b84b3          	add	s1,s7,s1
80000f64:	0004c503          	lbu	a0,0(s1)
80000f68:	df5ff0ef          	jal	80000d5c <_binary_shell_bin_start+0x13c>
80000f6c:	00048793          	mv	a5,s1
80000f70:	fff48493          	add	s1,s1,-1
80000f74:	fefb98e3          	bne	s7,a5,80000f64 <_binary_shell_bin_start+0x344>
80000f78:	f4dff06f          	j	80000ec4 <_binary_shell_bin_start+0x2a4>
80000f7c:	de1ff0ef          	jal	80000d5c <_binary_shell_bin_start+0x13c>
80000f80:	f49ff06f          	j	80000ec8 <_binary_shell_bin_start+0x2a8>
80000f84:	00412783          	lw	a5,4(sp)
80000f88:	80001b37          	lui	s6,0x80001
80000f8c:	01c00493          	li	s1,28
80000f90:	0007ab83          	lw	s7,0(a5)
80000f94:	00478793          	add	a5,a5,4
80000f98:	00f12223          	sw	a5,4(sp)
80000f9c:	078b0b13          	add	s6,s6,120 # 80001078 <_binary_shell_bin_start+0x458>
80000fa0:	ffc00c13          	li	s8,-4
80000fa4:	409bd7b3          	sra	a5,s7,s1
80000fa8:	00f7f793          	and	a5,a5,15
80000fac:	00fb07b3          	add	a5,s6,a5
80000fb0:	0007c503          	lbu	a0,0(a5)
80000fb4:	ffc48493          	add	s1,s1,-4
80000fb8:	da5ff0ef          	jal	80000d5c <_binary_shell_bin_start+0x13c>
80000fbc:	ff8494e3          	bne	s1,s8,80000fa4 <_binary_shell_bin_start+0x384>
80000fc0:	f05ff06f          	j	80000ec4 <_binary_shell_bin_start+0x2a4>
80000fc4:	00412783          	lw	a5,4(sp)
80000fc8:	0007a483          	lw	s1,0(a5)
80000fcc:	00478793          	add	a5,a5,4
80000fd0:	00f12223          	sw	a5,4(sp)
80000fd4:	0004c503          	lbu	a0,0(s1)
80000fd8:	ee0506e3          	beqz	a0,80000ec4 <_binary_shell_bin_start+0x2a4>
80000fdc:	00148493          	add	s1,s1,1
80000fe0:	d7dff0ef          	jal	80000d5c <_binary_shell_bin_start+0x13c>
80000fe4:	0004c503          	lbu	a0,0(s1)
80000fe8:	fe051ae3          	bnez	a0,80000fdc <_binary_shell_bin_start+0x3bc>
80000fec:	ed9ff06f          	j	80000ec4 <_binary_shell_bin_start+0x2a4>
80000ff0:	02500513          	li	a0,37
80000ff4:	d69ff0ef          	jal	80000d5c <_binary_shell_bin_start+0x13c>
80000ff8:	eddff06f          	j	80000ed4 <_binary_shell_bin_start+0x2b4>
80000ffc:	01068793          	add	a5,a3,16
80001000:	002787b3          	add	a5,a5,sp
80001004:	02d00713          	li	a4,45
80001008:	fee78c23          	sb	a4,-8(a5)
8000100c:	00068493          	mv	s1,a3
80001010:	f51ff06f          	j	80000f60 <_binary_shell_bin_start+0x340>
80001014:	003e                	.2byte	0x3e
80001016:	0000                	.2byte	0x0
80001018:	6d6d6f63          	bltu	s10,s6,800016f6 <_binary_shell_bin_start+0xad6>
8000101c:	6e61                	.2byte	0x6e61
8000101e:	2064                	.2byte	0x2064
80001020:	696c                	.2byte	0x696c
80001022:	656e                	.2byte	0x656e
80001024:	7420                	.2byte	0x7420
80001026:	6c206f6f          	jal	t5,800076e8 <_binary_shell_bin_start+0x6ac8>
8000102a:	0a676e6f          	jal	t3,800770d0 <__free_ram+0x350d0>
8000102e:	0000                	.2byte	0x0
80001030:	000a                	.2byte	0xa
80001032:	0000                	.2byte	0x0
80001034:	6568                	.2byte	0x6568
80001036:	6c6c                	.2byte	0x6c6c
80001038:	0000006f          	j	80001038 <_binary_shell_bin_start+0x418>
8000103c:	6548                	.2byte	0x6548
8000103e:	6c6c                	.2byte	0x6c6c
80001040:	6f57206f          	j	80073f34 <__free_ram+0x31f34>
80001044:	6c72                	.2byte	0x6c72
80001046:	2064                	.2byte	0x2064
80001048:	7266                	.2byte	0x7266
8000104a:	73206d6f          	jal	s10,8000777c <_binary_shell_bin_start+0x6b5c>
8000104e:	6568                	.2byte	0x6568
80001050:	6c6c                	.2byte	0x6c6c
80001052:	0a21                	.2byte	0xa21
80001054:	0000                	.2byte	0x0
80001056:	0000                	.2byte	0x0
80001058:	7865                	.2byte	0x7865
8000105a:	7469                	.2byte	0x7469
8000105c:	0000                	.2byte	0x0
8000105e:	0000                	.2byte	0x0
80001060:	6e75                	.2byte	0x6e75
80001062:	776f6e6b          	.4byte	0x776f6e6b
80001066:	206e                	.2byte	0x206e
80001068:	6d6d6f63          	bltu	s10,s6,80001746 <_binary_shell_bin_start+0xb26>
8000106c:	6e61                	.2byte	0x6e61
8000106e:	3a64                	.2byte	0x3a64
80001070:	2520                	.2byte	0x2520
80001072:	00000a73          	.4byte	0xa73
80001076:	0000                	.2byte	0x0
80001078:	3130                	.2byte	0x3130
8000107a:	3332                	.2byte	0x3332
8000107c:	3534                	.2byte	0x3534
8000107e:	3736                	.2byte	0x3736
80001080:	3938                	.2byte	0x3938
80001082:	6261                	.2byte	0x6261
80001084:	66656463          	bltu	a0,t1,800016ec <_binary_shell_bin_start+0xacc>
	...

Disassembly of section .sdata:

80011090 <next_paddr.0>:
80011090:	2000                	.2byte	0x2000
80011092:	8004                	.2byte	0x8004

Disassembly of section .bss:

80011094 <procs>:
	...

80021114 <idle_proc>:
80021114:	0000                	.2byte	0x0
	...

80021118 <current_proc>:
80021118:	0000                	.2byte	0x0
	...

Disassembly of section .comment:

00000000 <.comment>:
   0:	3a434347          	.4byte	0x3a434347
   4:	2820                	.2byte	0x2820
   6:	65653267          	.4byte	0x65653267
   a:	6535                	.2byte	0x6535
   c:	3334                	.2byte	0x3334
   e:	3030                	.2byte	0x3030
  10:	3831                	.2byte	0x3831
  12:	2029                	.2byte	0x2029
  14:	3231                	.2byte	0x3231
  16:	322e                	.2byte	0x322e
  18:	302e                	.2byte	0x302e
	...

Disassembly of section .riscv.attributes:

00000000 <.riscv.attributes>:
   0:	2841                	.2byte	0x2841
   2:	0000                	.2byte	0x0
   4:	7200                	.2byte	0x7200
   6:	7369                	.2byte	0x7369
   8:	01007663          	bgeu	zero,a6,14 <_binary_shell_bin_size-0x1045c>
   c:	001e                	.2byte	0x1e
   e:	0000                	.2byte	0x0
  10:	1004                	.2byte	0x1004
  12:	7205                	.2byte	0x7205
  14:	3376                	.2byte	0x3376
  16:	6932                	.2byte	0x6932
  18:	7032                	.2byte	0x7032
  1a:	5f31                	.2byte	0x5f31
  1c:	697a                	.2byte	0x697a
  1e:	32727363          	bgeu	tp,t2,344 <_binary_shell_bin_size-0x1012c>
  22:	3070                	.2byte	0x3070
  24:	0800                	.2byte	0x800
  26:	0a01                	.2byte	0xa01
  28:	0b              	Address 0x28 is out of bounds.

