
kernel.elf:     file format elf32-littleriscv


Disassembly of section .text:

80000000 <boot>:
80000000:	800417b7          	lui	a5,0x80041
80000004:	de078793          	add	a5,a5,-544 # 80040de0 <__stack_top>
80000008:	00078113          	mv	sp,a5
8000000c:	300027f3          	csrr	a5,mstatus
80000010:	ffffe737          	lui	a4,0xffffe
80000014:	7ff70713          	add	a4,a4,2047 # ffffe7ff <__free_ram_end+0x7bfbd7ff>
80000018:	00e7f7b3          	and	a5,a5,a4
8000001c:	00001737          	lui	a4,0x1
80000020:	80070713          	add	a4,a4,-2048 # 800 <_binary_shell_bin_size-0xfac0>
80000024:	00e7e7b3          	or	a5,a5,a4
80000028:	30079073          	csrw	mstatus,a5
8000002c:	800007b7          	lui	a5,0x80000
80000030:	60478793          	add	a5,a5,1540 # 80000604 <kernel_main>
80000034:	34179073          	csrw	mepc,a5
80000038:	00000793          	li	a5,0
8000003c:	18079073          	csrw	satp,a5
80000040:	000107b7          	lui	a5,0x10
80000044:	fff78793          	add	a5,a5,-1 # ffff <_binary_shell_bin_size-0x2c1>
80000048:	30279073          	csrw	medeleg,a5
8000004c:	30379073          	csrw	mideleg,a5
80000050:	104027f3          	csrr	a5,sie
80000054:	2227e793          	or	a5,a5,546
80000058:	10479073          	csrw	sie,a5
8000005c:	fff00793          	li	a5,-1
80000060:	3b079073          	csrw	pmpaddr0,a5
80000064:	00f00793          	li	a5,15
80000068:	3a079073          	csrw	pmpcfg0,a5
8000006c:	30200073          	mret

80000070 <kernel_entry>:
80000070:	14011173          	csrrw	sp,sscratch,sp
80000074:	f8410113          	add	sp,sp,-124
80000078:	00112023          	sw	ra,0(sp)
8000007c:	00312223          	sw	gp,4(sp)
80000080:	00412423          	sw	tp,8(sp)
80000084:	00512623          	sw	t0,12(sp)
80000088:	00612823          	sw	t1,16(sp)
8000008c:	00712a23          	sw	t2,20(sp)
80000090:	01c12c23          	sw	t3,24(sp)
80000094:	01d12e23          	sw	t4,28(sp)
80000098:	03e12023          	sw	t5,32(sp)
8000009c:	03f12223          	sw	t6,36(sp)
800000a0:	02a12423          	sw	a0,40(sp)
800000a4:	02b12623          	sw	a1,44(sp)
800000a8:	02c12823          	sw	a2,48(sp)
800000ac:	02d12a23          	sw	a3,52(sp)
800000b0:	02e12c23          	sw	a4,56(sp)
800000b4:	02f12e23          	sw	a5,60(sp)
800000b8:	05012023          	sw	a6,64(sp)
800000bc:	05112223          	sw	a7,68(sp)
800000c0:	04812423          	sw	s0,72(sp)
800000c4:	04912623          	sw	s1,76(sp)
800000c8:	05212823          	sw	s2,80(sp)
800000cc:	05312a23          	sw	s3,84(sp)
800000d0:	05412c23          	sw	s4,88(sp)
800000d4:	05512e23          	sw	s5,92(sp)
800000d8:	07612023          	sw	s6,96(sp)
800000dc:	07712223          	sw	s7,100(sp)
800000e0:	07812423          	sw	s8,104(sp)
800000e4:	07912623          	sw	s9,108(sp)
800000e8:	07a12823          	sw	s10,112(sp)
800000ec:	07b12a23          	sw	s11,116(sp)
800000f0:	14002573          	csrr	a0,sscratch
800000f4:	06a12c23          	sw	a0,120(sp)
800000f8:	07c10513          	add	a0,sp,124
800000fc:	14051073          	csrw	sscratch,a0
80000100:	00010513          	mv	a0,sp
80000104:	5b0000ef          	jal	800006b4 <handle_trap>
80000108:	00012083          	lw	ra,0(sp)
8000010c:	00412183          	lw	gp,4(sp)
80000110:	00812203          	lw	tp,8(sp)
80000114:	00c12283          	lw	t0,12(sp)
80000118:	01012303          	lw	t1,16(sp)
8000011c:	01412383          	lw	t2,20(sp)
80000120:	01812e03          	lw	t3,24(sp)
80000124:	01c12e83          	lw	t4,28(sp)
80000128:	02012f03          	lw	t5,32(sp)
8000012c:	02412f83          	lw	t6,36(sp)
80000130:	02812503          	lw	a0,40(sp)
80000134:	02c12583          	lw	a1,44(sp)
80000138:	03012603          	lw	a2,48(sp)
8000013c:	03412683          	lw	a3,52(sp)
80000140:	03812703          	lw	a4,56(sp)
80000144:	03c12783          	lw	a5,60(sp)
80000148:	04012803          	lw	a6,64(sp)
8000014c:	04412883          	lw	a7,68(sp)
80000150:	04812403          	lw	s0,72(sp)
80000154:	04c12483          	lw	s1,76(sp)
80000158:	05012903          	lw	s2,80(sp)
8000015c:	05412983          	lw	s3,84(sp)
80000160:	05812a03          	lw	s4,88(sp)
80000164:	05c12a83          	lw	s5,92(sp)
80000168:	06012b03          	lw	s6,96(sp)
8000016c:	06412b83          	lw	s7,100(sp)
80000170:	06812c03          	lw	s8,104(sp)
80000174:	06c12c83          	lw	s9,108(sp)
80000178:	07012d03          	lw	s10,112(sp)
8000017c:	07412d83          	lw	s11,116(sp)
80000180:	07812103          	lw	sp,120(sp)
80000184:	10200073          	sret

80000188 <alloc_pages>:
80000188:	800117b7          	lui	a5,0x80011
8000018c:	ff010113          	add	sp,sp,-16
80000190:	00812423          	sw	s0,8(sp)
80000194:	d4c7a403          	lw	s0,-692(a5) # 80010d4c <next_paddr.0>
80000198:	00c51613          	sll	a2,a0,0xc
8000019c:	00112623          	sw	ra,12(sp)
800001a0:	00860733          	add	a4,a2,s0
800001a4:	d4e7a623          	sw	a4,-692(a5)
800001a8:	840417b7          	lui	a5,0x84041
800001ac:	00078793          	mv	a5,a5
800001b0:	02e7f063          	bgeu	a5,a4,800001d0 <alloc_pages+0x48>
800001b4:	800015b7          	lui	a1,0x80001
800001b8:	80001537          	lui	a0,0x80001
800001bc:	01300613          	li	a2,19
800001c0:	98858593          	add	a1,a1,-1656 # 80000988 <putchar+0x18>
800001c4:	99450513          	add	a0,a0,-1644 # 80000994 <putchar+0x24>
800001c8:	5cc000ef          	jal	80000794 <printf>
800001cc:	0000006f          	j	800001cc <alloc_pages+0x44>
800001d0:	00040513          	mv	a0,s0
800001d4:	00000593          	li	a1,0
800001d8:	50c000ef          	jal	800006e4 <memset>
800001dc:	00c12083          	lw	ra,12(sp)
800001e0:	00040513          	mv	a0,s0
800001e4:	00812403          	lw	s0,8(sp)
800001e8:	01010113          	add	sp,sp,16
800001ec:	00008067          	ret

800001f0 <map_page>:
800001f0:	0165d793          	srl	a5,a1,0x16
800001f4:	fd010113          	add	sp,sp,-48
800001f8:	00279793          	sll	a5,a5,0x2
800001fc:	01312e23          	sw	s3,28(sp)
80000200:	00f509b3          	add	s3,a0,a5
80000204:	0009a783          	lw	a5,0(s3)
80000208:	02812423          	sw	s0,40(sp)
8000020c:	02912223          	sw	s1,36(sp)
80000210:	02112623          	sw	ra,44(sp)
80000214:	03212023          	sw	s2,32(sp)
80000218:	0017f713          	and	a4,a5,1
8000021c:	00060413          	mv	s0,a2
80000220:	00058493          	mv	s1,a1
80000224:	00a7d613          	srl	a2,a5,0xa
80000228:	04070463          	beqz	a4,80000270 <map_page+0x80>
8000022c:	00c4d713          	srl	a4,s1,0xc
80000230:	00c45793          	srl	a5,s0,0xc
80000234:	3ff77713          	and	a4,a4,1023
80000238:	00a79793          	sll	a5,a5,0xa
8000023c:	02c12083          	lw	ra,44(sp)
80000240:	02812403          	lw	s0,40(sp)
80000244:	00c61613          	sll	a2,a2,0xc
80000248:	00271713          	sll	a4,a4,0x2
8000024c:	00d7e7b3          	or	a5,a5,a3
80000250:	00e60633          	add	a2,a2,a4
80000254:	0017e793          	or	a5,a5,1
80000258:	00f62023          	sw	a5,0(a2)
8000025c:	02412483          	lw	s1,36(sp)
80000260:	02012903          	lw	s2,32(sp)
80000264:	01c12983          	lw	s3,28(sp)
80000268:	03010113          	add	sp,sp,48
8000026c:	00008067          	ret
80000270:	80011737          	lui	a4,0x80011
80000274:	d4c72903          	lw	s2,-692(a4) # 80010d4c <next_paddr.0>
80000278:	000017b7          	lui	a5,0x1
8000027c:	00f907b3          	add	a5,s2,a5
80000280:	d4f72623          	sw	a5,-692(a4)
80000284:	84041737          	lui	a4,0x84041
80000288:	00070713          	mv	a4,a4
8000028c:	02f77063          	bgeu	a4,a5,800002ac <map_page+0xbc>
80000290:	800015b7          	lui	a1,0x80001
80000294:	80001537          	lui	a0,0x80001
80000298:	01300613          	li	a2,19
8000029c:	98858593          	add	a1,a1,-1656 # 80000988 <putchar+0x18>
800002a0:	99450513          	add	a0,a0,-1644 # 80000994 <putchar+0x24>
800002a4:	4f0000ef          	jal	80000794 <printf>
800002a8:	0000006f          	j	800002a8 <map_page+0xb8>
800002ac:	00001637          	lui	a2,0x1
800002b0:	00000593          	li	a1,0
800002b4:	00090513          	mv	a0,s2
800002b8:	00d12623          	sw	a3,12(sp)
800002bc:	428000ef          	jal	800006e4 <memset>
800002c0:	00c95613          	srl	a2,s2,0xc
800002c4:	00a61793          	sll	a5,a2,0xa
800002c8:	0017e793          	or	a5,a5,1
800002cc:	00c12683          	lw	a3,12(sp)
800002d0:	00f9a023          	sw	a5,0(s3)
800002d4:	f59ff06f          	j	8000022c <map_page+0x3c>

800002d8 <switch_context>:
800002d8:	fcc10113          	add	sp,sp,-52
800002dc:	00112023          	sw	ra,0(sp)
800002e0:	00812223          	sw	s0,4(sp)
800002e4:	00912423          	sw	s1,8(sp)
800002e8:	01212623          	sw	s2,12(sp)
800002ec:	01312823          	sw	s3,16(sp)
800002f0:	01412a23          	sw	s4,20(sp)
800002f4:	01512c23          	sw	s5,24(sp)
800002f8:	01612e23          	sw	s6,28(sp)
800002fc:	03712023          	sw	s7,32(sp)
80000300:	03812223          	sw	s8,36(sp)
80000304:	03912423          	sw	s9,40(sp)
80000308:	03a12623          	sw	s10,44(sp)
8000030c:	03b12823          	sw	s11,48(sp)
80000310:	00252023          	sw	sp,0(a0)
80000314:	0005a103          	lw	sp,0(a1)
80000318:	00012083          	lw	ra,0(sp)
8000031c:	00412403          	lw	s0,4(sp)
80000320:	00812483          	lw	s1,8(sp)
80000324:	00c12903          	lw	s2,12(sp)
80000328:	01012983          	lw	s3,16(sp)
8000032c:	01412a03          	lw	s4,20(sp)
80000330:	01812a83          	lw	s5,24(sp)
80000334:	01c12b03          	lw	s6,28(sp)
80000338:	02012b83          	lw	s7,32(sp)
8000033c:	02412c03          	lw	s8,36(sp)
80000340:	02812c83          	lw	s9,40(sp)
80000344:	02c12d03          	lw	s10,44(sp)
80000348:	03012d83          	lw	s11,48(sp)
8000034c:	03410113          	add	sp,sp,52
80000350:	00008067          	ret

80000354 <create_process>:
80000354:	fd010113          	add	sp,sp,-48
80000358:	800117b7          	lui	a5,0x80011
8000035c:	000026b7          	lui	a3,0x2
80000360:	02812423          	sw	s0,40(sp)
80000364:	03212023          	sw	s2,32(sp)
80000368:	02112623          	sw	ra,44(sp)
8000036c:	d5078913          	add	s2,a5,-688 # 80010d50 <procs>
80000370:	02912223          	sw	s1,36(sp)
80000374:	01312e23          	sw	s3,28(sp)
80000378:	01412c23          	sw	s4,24(sp)
8000037c:	01512a23          	sw	s5,20(sp)
80000380:	01612823          	sw	s6,16(sp)
80000384:	01712623          	sw	s7,12(sp)
80000388:	d5078793          	add	a5,a5,-688
8000038c:	00000413          	li	s0,0
80000390:	01068693          	add	a3,a3,16 # 2010 <_binary_shell_bin_size-0xe2b0>
80000394:	00800613          	li	a2,8
80000398:	0047a703          	lw	a4,4(a5)
8000039c:	00d787b3          	add	a5,a5,a3
800003a0:	02070463          	beqz	a4,800003c8 <create_process+0x74>
800003a4:	00140413          	add	s0,s0,1
800003a8:	fec418e3          	bne	s0,a2,80000398 <create_process+0x44>
800003ac:	800015b7          	lui	a1,0x80001
800003b0:	80001537          	lui	a0,0x80001
800003b4:	0ad00613          	li	a2,173
800003b8:	98858593          	add	a1,a1,-1656 # 80000988 <putchar+0x18>
800003bc:	9b450513          	add	a0,a0,-1612 # 800009b4 <putchar+0x44>
800003c0:	3d4000ef          	jal	80000794 <printf>
800003c4:	0000006f          	j	800003c4 <create_process+0x70>
800003c8:	800116b7          	lui	a3,0x80011
800003cc:	00941b13          	sll	s6,s0,0x9
800003d0:	d4c6aa03          	lw	s4,-692(a3) # 80010d4c <next_paddr.0>
800003d4:	008b0ab3          	add	s5,s6,s0
800003d8:	004a9a93          	sll	s5,s5,0x4
800003dc:	01590ab3          	add	s5,s2,s5
800003e0:	000027b7          	lui	a5,0x2
800003e4:	00001737          	lui	a4,0x1
800003e8:	00fa87b3          	add	a5,s5,a5
800003ec:	00ea0733          	add	a4,s4,a4
800003f0:	840419b7          	lui	s3,0x84041
800003f4:	0007a623          	sw	zero,12(a5) # 200c <_binary_shell_bin_size-0xe2b4>
800003f8:	0007a423          	sw	zero,8(a5)
800003fc:	0007a223          	sw	zero,4(a5)
80000400:	0007a023          	sw	zero,0(a5)
80000404:	fe07ae23          	sw	zero,-4(a5)
80000408:	fe07ac23          	sw	zero,-8(a5)
8000040c:	fe07aa23          	sw	zero,-12(a5)
80000410:	fe07a823          	sw	zero,-16(a5)
80000414:	fe07a623          	sw	zero,-20(a5)
80000418:	fe07a423          	sw	zero,-24(a5)
8000041c:	fe07a223          	sw	zero,-28(a5)
80000420:	fe07a023          	sw	zero,-32(a5)
80000424:	fca7ae23          	sw	a0,-36(a5)
80000428:	d4e6a623          	sw	a4,-692(a3)
8000042c:	00098993          	mv	s3,s3
80000430:	0ae9e063          	bltu	s3,a4,800004d0 <create_process+0x17c>
80000434:	800004b7          	lui	s1,0x80000
80000438:	00001637          	lui	a2,0x1
8000043c:	00000593          	li	a1,0
80000440:	000a0513          	mv	a0,s4
80000444:	00048493          	mv	s1,s1
80000448:	29c000ef          	jal	800006e4 <memset>
8000044c:	00001bb7          	lui	s7,0x1
80000450:	0334f063          	bgeu	s1,s3,80000470 <create_process+0x11c>
80000454:	00048613          	mv	a2,s1
80000458:	00048593          	mv	a1,s1
8000045c:	00e00693          	li	a3,14
80000460:	017484b3          	add	s1,s1,s7
80000464:	000a0513          	mv	a0,s4
80000468:	d89ff0ef          	jal	800001f0 <map_page>
8000046c:	ff34e4e3          	bltu	s1,s3,80000454 <create_process+0x100>
80000470:	008b07b3          	add	a5,s6,s0
80000474:	00479793          	sll	a5,a5,0x4
80000478:	00f90933          	add	s2,s2,a5
8000047c:	00140413          	add	s0,s0,1
80000480:	000027b7          	lui	a5,0x2
80000484:	00892023          	sw	s0,0(s2)
80000488:	02c12083          	lw	ra,44(sp)
8000048c:	02812403          	lw	s0,40(sp)
80000490:	fdc78793          	add	a5,a5,-36 # 1fdc <_binary_shell_bin_size-0xe2e4>
80000494:	00fa87b3          	add	a5,s5,a5
80000498:	00100713          	li	a4,1
8000049c:	01492623          	sw	s4,12(s2)
800004a0:	00e92223          	sw	a4,4(s2)
800004a4:	00f92423          	sw	a5,8(s2)
800004a8:	02412483          	lw	s1,36(sp)
800004ac:	02012903          	lw	s2,32(sp)
800004b0:	01c12983          	lw	s3,28(sp)
800004b4:	01812a03          	lw	s4,24(sp)
800004b8:	01012b03          	lw	s6,16(sp)
800004bc:	00c12b83          	lw	s7,12(sp)
800004c0:	000a8513          	mv	a0,s5
800004c4:	01412a83          	lw	s5,20(sp)
800004c8:	03010113          	add	sp,sp,48
800004cc:	00008067          	ret
800004d0:	800015b7          	lui	a1,0x80001
800004d4:	80001537          	lui	a0,0x80001
800004d8:	01300613          	li	a2,19
800004dc:	98858593          	add	a1,a1,-1656 # 80000988 <putchar+0x18>
800004e0:	99450513          	add	a0,a0,-1644 # 80000994 <putchar+0x24>
800004e4:	2b0000ef          	jal	80000794 <printf>
800004e8:	0000006f          	j	800004e8 <create_process+0x194>

800004ec <yield>:
800004ec:	80021337          	lui	t1,0x80021
800004f0:	ddc32503          	lw	a0,-548(t1) # 80020ddc <current_proc>
800004f4:	800217b7          	lui	a5,0x80021
800004f8:	dd87a583          	lw	a1,-552(a5) # 80020dd8 <idle_proc>
800004fc:	00052683          	lw	a3,0(a0)
80000500:	80011637          	lui	a2,0x80011
80000504:	d5060613          	add	a2,a2,-688 # 80010d50 <procs>
80000508:	00868893          	add	a7,a3,8
8000050c:	00100813          	li	a6,1
80000510:	41f6d793          	sra	a5,a3,0x1f
80000514:	01d7d793          	srl	a5,a5,0x1d
80000518:	00f68733          	add	a4,a3,a5
8000051c:	00777713          	and	a4,a4,7
80000520:	40f70733          	sub	a4,a4,a5
80000524:	00971793          	sll	a5,a4,0x9
80000528:	00e787b3          	add	a5,a5,a4
8000052c:	00479793          	sll	a5,a5,0x4
80000530:	00f607b3          	add	a5,a2,a5
80000534:	0047a703          	lw	a4,4(a5)
80000538:	00168693          	add	a3,a3,1
8000053c:	03070663          	beq	a4,a6,80000568 <yield+0x7c>
80000540:	fd1698e3          	bne	a3,a7,80000510 <yield+0x24>
80000544:	02b50a63          	beq	a0,a1,80000578 <yield+0x8c>
80000548:	000027b7          	lui	a5,0x2
8000054c:	01078793          	add	a5,a5,16 # 2010 <_binary_shell_bin_size-0xe2b0>
80000550:	dcb32e23          	sw	a1,-548(t1)
80000554:	00f587b3          	add	a5,a1,a5
80000558:	14079073          	csrw	sscratch,a5
8000055c:	00858593          	add	a1,a1,8
80000560:	00850513          	add	a0,a0,8
80000564:	d75ff06f          	j	800002d8 <switch_context>
80000568:	0007a703          	lw	a4,0(a5)
8000056c:	fce05ae3          	blez	a4,80000540 <yield+0x54>
80000570:	00078593          	mv	a1,a5
80000574:	fcb51ae3          	bne	a0,a1,80000548 <yield+0x5c>
80000578:	00008067          	ret

8000057c <proc_a_entry>:
8000057c:	80001537          	lui	a0,0x80001
80000580:	ff010113          	add	sp,sp,-16
80000584:	9dc50513          	add	a0,a0,-1572 # 800009dc <putchar+0x6c>
80000588:	00812423          	sw	s0,8(sp)
8000058c:	00912223          	sw	s1,4(sp)
80000590:	00112623          	sw	ra,12(sp)
80000594:	800014b7          	lui	s1,0x80001
80000598:	1fc000ef          	jal	80000794 <printf>
8000059c:	01c9c437          	lui	s0,0x1c9c
800005a0:	9f048513          	add	a0,s1,-1552 # 800009f0 <putchar+0x80>
800005a4:	1f0000ef          	jal	80000794 <printf>
800005a8:	f45ff0ef          	jal	800004ec <yield>
800005ac:	38040793          	add	a5,s0,896 # 1c9c380 <_binary_shell_bin_size+0x1c8c0c0>
800005b0:	00000013          	nop
800005b4:	fff78793          	add	a5,a5,-1
800005b8:	fe079ce3          	bnez	a5,800005b0 <proc_a_entry+0x34>
800005bc:	fe5ff06f          	j	800005a0 <proc_a_entry+0x24>

800005c0 <proc_b_entry>:
800005c0:	80001537          	lui	a0,0x80001
800005c4:	ff010113          	add	sp,sp,-16
800005c8:	9f450513          	add	a0,a0,-1548 # 800009f4 <putchar+0x84>
800005cc:	00812423          	sw	s0,8(sp)
800005d0:	00912223          	sw	s1,4(sp)
800005d4:	00112623          	sw	ra,12(sp)
800005d8:	800014b7          	lui	s1,0x80001
800005dc:	1b8000ef          	jal	80000794 <printf>
800005e0:	01c9c437          	lui	s0,0x1c9c
800005e4:	a0848513          	add	a0,s1,-1528 # 80000a08 <putchar+0x98>
800005e8:	1ac000ef          	jal	80000794 <printf>
800005ec:	f01ff0ef          	jal	800004ec <yield>
800005f0:	38040793          	add	a5,s0,896 # 1c9c380 <_binary_shell_bin_size+0x1c8c0c0>
800005f4:	00000013          	nop
800005f8:	fff78793          	add	a5,a5,-1
800005fc:	fe079ce3          	bnez	a5,800005f4 <proc_b_entry+0x34>
80000600:	fe5ff06f          	j	800005e4 <proc_b_entry+0x24>

80000604 <kernel_main>:
80000604:	80011537          	lui	a0,0x80011
80000608:	800217b7          	lui	a5,0x80021
8000060c:	de078793          	add	a5,a5,-544 # 80020de0 <__bss_end>
80000610:	d5050613          	add	a2,a0,-688 # 80010d50 <procs>
80000614:	ff010113          	add	sp,sp,-16
80000618:	40c78633          	sub	a2,a5,a2
8000061c:	00000593          	li	a1,0
80000620:	d5050513          	add	a0,a0,-688
80000624:	00112623          	sw	ra,12(sp)
80000628:	0bc000ef          	jal	800006e4 <memset>
8000062c:	80001537          	lui	a0,0x80001
80000630:	a0c50513          	add	a0,a0,-1524 # 80000a0c <putchar+0x9c>
80000634:	160000ef          	jal	80000794 <printf>
80000638:	800007b7          	lui	a5,0x80000
8000063c:	07078793          	add	a5,a5,112 # 80000070 <kernel_entry>
80000640:	10579073          	csrw	stvec,a5
80000644:	00000513          	li	a0,0
80000648:	d0dff0ef          	jal	80000354 <create_process>
8000064c:	80021737          	lui	a4,0x80021
80000650:	dca72c23          	sw	a0,-552(a4) # 80020dd8 <idle_proc>
80000654:	fff00713          	li	a4,-1
80000658:	00050793          	mv	a5,a0
8000065c:	00e52023          	sw	a4,0(a0)
80000660:	80000537          	lui	a0,0x80000
80000664:	80021737          	lui	a4,0x80021
80000668:	57c50513          	add	a0,a0,1404 # 8000057c <proc_a_entry>
8000066c:	dcf72e23          	sw	a5,-548(a4) # 80020ddc <current_proc>
80000670:	ce5ff0ef          	jal	80000354 <create_process>
80000674:	00050713          	mv	a4,a0
80000678:	80000537          	lui	a0,0x80000
8000067c:	800217b7          	lui	a5,0x80021
80000680:	5c050513          	add	a0,a0,1472 # 800005c0 <proc_b_entry>
80000684:	dce7aa23          	sw	a4,-556(a5) # 80020dd4 <proc_a>
80000688:	ccdff0ef          	jal	80000354 <create_process>
8000068c:	800217b7          	lui	a5,0x80021
80000690:	dca7a823          	sw	a0,-560(a5) # 80020dd0 <proc_b>
80000694:	e59ff0ef          	jal	800004ec <yield>
80000698:	800015b7          	lui	a1,0x80001
8000069c:	80001537          	lui	a0,0x80001
800006a0:	11800613          	li	a2,280
800006a4:	98858593          	add	a1,a1,-1656 # 80000988 <putchar+0x18>
800006a8:	a1050513          	add	a0,a0,-1520 # 80000a10 <putchar+0xa0>
800006ac:	0e8000ef          	jal	80000794 <printf>
800006b0:	0000006f          	j	800006b0 <kernel_main+0xac>

800006b4 <handle_trap>:
800006b4:	ff010113          	add	sp,sp,-16
800006b8:	00112623          	sw	ra,12(sp)
800006bc:	142026f3          	csrr	a3,scause
800006c0:	14302773          	csrr	a4,stval
800006c4:	141027f3          	csrr	a5,sepc
800006c8:	800015b7          	lui	a1,0x80001
800006cc:	80001537          	lui	a0,0x80001
800006d0:	0ed00613          	li	a2,237
800006d4:	98858593          	add	a1,a1,-1656 # 80000988 <putchar+0x18>
800006d8:	a3850513          	add	a0,a0,-1480 # 80000a38 <putchar+0xc8>
800006dc:	0b8000ef          	jal	80000794 <printf>
800006e0:	0000006f          	j	800006e0 <handle_trap+0x2c>

800006e4 <memset>:
800006e4:	00060c63          	beqz	a2,800006fc <memset+0x18>
800006e8:	00c50633          	add	a2,a0,a2
800006ec:	00050793          	mv	a5,a0
800006f0:	00178793          	add	a5,a5,1
800006f4:	feb78fa3          	sb	a1,-1(a5)
800006f8:	fec79ce3          	bne	a5,a2,800006f0 <memset+0xc>
800006fc:	00008067          	ret

80000700 <memcpy>:
80000700:	02060063          	beqz	a2,80000720 <memcpy+0x20>
80000704:	00c50633          	add	a2,a0,a2
80000708:	00050793          	mv	a5,a0
8000070c:	0005c703          	lbu	a4,0(a1)
80000710:	00178793          	add	a5,a5,1
80000714:	00158593          	add	a1,a1,1
80000718:	fee78fa3          	sb	a4,-1(a5)
8000071c:	fec798e3          	bne	a5,a2,8000070c <memcpy+0xc>
80000720:	00008067          	ret

80000724 <strcpy>:
80000724:	0005c783          	lbu	a5,0(a1)
80000728:	00050713          	mv	a4,a0
8000072c:	00078c63          	beqz	a5,80000744 <strcpy+0x20>
80000730:	00f70023          	sb	a5,0(a4)
80000734:	0015c783          	lbu	a5,1(a1)
80000738:	00158593          	add	a1,a1,1
8000073c:	00170713          	add	a4,a4,1
80000740:	fe0798e3          	bnez	a5,80000730 <strcpy+0xc>
80000744:	00070023          	sb	zero,0(a4)
80000748:	00008067          	ret

8000074c <strcmp>:
8000074c:	00054783          	lbu	a5,0(a0)
80000750:	00079c63          	bnez	a5,80000768 <strcmp+0x1c>
80000754:	0380006f          	j	8000078c <strcmp+0x40>
80000758:	02f71063          	bne	a4,a5,80000778 <strcmp+0x2c>
8000075c:	00054783          	lbu	a5,0(a0)
80000760:	02078063          	beqz	a5,80000780 <strcmp+0x34>
80000764:	00068593          	mv	a1,a3
80000768:	0005c703          	lbu	a4,0(a1)
8000076c:	00150513          	add	a0,a0,1
80000770:	00158693          	add	a3,a1,1
80000774:	fe0712e3          	bnez	a4,80000758 <strcmp+0xc>
80000778:	40e78533          	sub	a0,a5,a4
8000077c:	00008067          	ret
80000780:	0015c703          	lbu	a4,1(a1)
80000784:	40e78533          	sub	a0,a5,a4
80000788:	00008067          	ret
8000078c:	0005c703          	lbu	a4,0(a1)
80000790:	fe9ff06f          	j	80000778 <strcmp+0x2c>

80000794 <printf>:
80000794:	fa010113          	add	sp,sp,-96
80000798:	02812c23          	sw	s0,56(sp)
8000079c:	04f12a23          	sw	a5,84(sp)
800007a0:	02112e23          	sw	ra,60(sp)
800007a4:	02912a23          	sw	s1,52(sp)
800007a8:	03212823          	sw	s2,48(sp)
800007ac:	03312623          	sw	s3,44(sp)
800007b0:	03412423          	sw	s4,40(sp)
800007b4:	03512223          	sw	s5,36(sp)
800007b8:	03612023          	sw	s6,32(sp)
800007bc:	01712e23          	sw	s7,28(sp)
800007c0:	01812c23          	sw	s8,24(sp)
800007c4:	04b12223          	sw	a1,68(sp)
800007c8:	04c12423          	sw	a2,72(sp)
800007cc:	04d12623          	sw	a3,76(sp)
800007d0:	04e12823          	sw	a4,80(sp)
800007d4:	05012c23          	sw	a6,88(sp)
800007d8:	05112e23          	sw	a7,92(sp)
800007dc:	00050413          	mv	s0,a0
800007e0:	00054503          	lbu	a0,0(a0)
800007e4:	04410793          	add	a5,sp,68
800007e8:	00f12223          	sw	a5,4(sp)
800007ec:	04050263          	beqz	a0,80000830 <printf+0x9c>
800007f0:	02500913          	li	s2,37
800007f4:	07000993          	li	s3,112
800007f8:	07300a93          	li	s5,115
800007fc:	07800a13          	li	s4,120
80000800:	0d251c63          	bne	a0,s2,800008d8 <printf+0x144>
80000804:	00144783          	lbu	a5,1(s0)
80000808:	0d378c63          	beq	a5,s3,800008e0 <printf+0x14c>
8000080c:	04f9ea63          	bltu	s3,a5,80000860 <printf+0xcc>
80000810:	12078e63          	beqz	a5,8000094c <printf+0x1b8>
80000814:	01279663          	bne	a5,s2,80000820 <printf+0x8c>
80000818:	02500513          	li	a0,37
8000081c:	154000ef          	jal	80000970 <putchar>
80000820:	00140413          	add	s0,s0,1
80000824:	00144503          	lbu	a0,1(s0)
80000828:	00140413          	add	s0,s0,1
8000082c:	fc051ae3          	bnez	a0,80000800 <printf+0x6c>
80000830:	03c12083          	lw	ra,60(sp)
80000834:	03812403          	lw	s0,56(sp)
80000838:	03412483          	lw	s1,52(sp)
8000083c:	03012903          	lw	s2,48(sp)
80000840:	02c12983          	lw	s3,44(sp)
80000844:	02812a03          	lw	s4,40(sp)
80000848:	02412a83          	lw	s5,36(sp)
8000084c:	02012b03          	lw	s6,32(sp)
80000850:	01c12b83          	lw	s7,28(sp)
80000854:	01812c03          	lw	s8,24(sp)
80000858:	06010113          	add	sp,sp,96
8000085c:	00008067          	ret
80000860:	0d578063          	beq	a5,s5,80000920 <printf+0x18c>
80000864:	fb479ee3          	bne	a5,s4,80000820 <printf+0x8c>
80000868:	00412783          	lw	a5,4(sp)
8000086c:	80001b37          	lui	s6,0x80001
80000870:	00000693          	li	a3,0
80000874:	0007a583          	lw	a1,0(a5)
80000878:	00478793          	add	a5,a5,4
8000087c:	00f12223          	sw	a5,4(sp)
80000880:	41f5d713          	sra	a4,a1,0x1f
80000884:	00b747b3          	xor	a5,a4,a1
80000888:	40e787b3          	sub	a5,a5,a4
8000088c:	00810b93          	add	s7,sp,8
80000890:	a78b0b13          	add	s6,s6,-1416 # 80000a78 <putchar+0x108>
80000894:	00f7f713          	and	a4,a5,15
80000898:	00eb0733          	add	a4,s6,a4
8000089c:	00074603          	lbu	a2,0(a4)
800008a0:	00068493          	mv	s1,a3
800008a4:	00168693          	add	a3,a3,1
800008a8:	00db8733          	add	a4,s7,a3
800008ac:	fec70fa3          	sb	a2,-1(a4)
800008b0:	0047d793          	srl	a5,a5,0x4
800008b4:	fe0790e3          	bnez	a5,80000894 <printf+0x100>
800008b8:	0a05c063          	bltz	a1,80000958 <printf+0x1c4>
800008bc:	009b84b3          	add	s1,s7,s1
800008c0:	0004c503          	lbu	a0,0(s1)
800008c4:	0ac000ef          	jal	80000970 <putchar>
800008c8:	00048793          	mv	a5,s1
800008cc:	fff48493          	add	s1,s1,-1
800008d0:	fefb98e3          	bne	s7,a5,800008c0 <printf+0x12c>
800008d4:	f4dff06f          	j	80000820 <printf+0x8c>
800008d8:	098000ef          	jal	80000970 <putchar>
800008dc:	f49ff06f          	j	80000824 <printf+0x90>
800008e0:	00412783          	lw	a5,4(sp)
800008e4:	80001b37          	lui	s6,0x80001
800008e8:	01c00493          	li	s1,28
800008ec:	0007ab83          	lw	s7,0(a5)
800008f0:	00478793          	add	a5,a5,4
800008f4:	00f12223          	sw	a5,4(sp)
800008f8:	a78b0b13          	add	s6,s6,-1416 # 80000a78 <putchar+0x108>
800008fc:	ffc00c13          	li	s8,-4
80000900:	409bd7b3          	sra	a5,s7,s1
80000904:	00f7f793          	and	a5,a5,15
80000908:	00fb07b3          	add	a5,s6,a5
8000090c:	0007c503          	lbu	a0,0(a5)
80000910:	ffc48493          	add	s1,s1,-4
80000914:	05c000ef          	jal	80000970 <putchar>
80000918:	ff8494e3          	bne	s1,s8,80000900 <printf+0x16c>
8000091c:	f05ff06f          	j	80000820 <printf+0x8c>
80000920:	00412783          	lw	a5,4(sp)
80000924:	0007a483          	lw	s1,0(a5)
80000928:	00478793          	add	a5,a5,4
8000092c:	00f12223          	sw	a5,4(sp)
80000930:	0004c503          	lbu	a0,0(s1)
80000934:	ee0506e3          	beqz	a0,80000820 <printf+0x8c>
80000938:	00148493          	add	s1,s1,1
8000093c:	034000ef          	jal	80000970 <putchar>
80000940:	0004c503          	lbu	a0,0(s1)
80000944:	fe051ae3          	bnez	a0,80000938 <printf+0x1a4>
80000948:	ed9ff06f          	j	80000820 <printf+0x8c>
8000094c:	02500513          	li	a0,37
80000950:	020000ef          	jal	80000970 <putchar>
80000954:	eddff06f          	j	80000830 <printf+0x9c>
80000958:	01068793          	add	a5,a3,16
8000095c:	002787b3          	add	a5,a5,sp
80000960:	02d00713          	li	a4,45
80000964:	fee78c23          	sb	a4,-8(a5)
80000968:	00068493          	mv	s1,a3
8000096c:	f51ff06f          	j	800008bc <printf+0x128>

80000970 <putchar>:
80000970:	10000737          	lui	a4,0x10000
80000974:	00574783          	lbu	a5,5(a4) # 10000005 <_binary_shell_bin_size+0xffefd45>
80000978:	0207f793          	and	a5,a5,32
8000097c:	fe078ce3          	beqz	a5,80000974 <putchar+0x4>
80000980:	00a70023          	sb	a0,0(a4)
80000984:	00008067          	ret

Disassembly of section .rodata:

80000988 <.rodata>:
80000988:	6e72656b          	.4byte	0x6e72656b
8000098c:	6c65                	.2byte	0x6c65
8000098e:	632e                	.2byte	0x632e
80000990:	0000                	.2byte	0x0
80000992:	0000                	.2byte	0x0
80000994:	4150                	.2byte	0x4150
80000996:	494e                	.2byte	0x494e
80000998:	25203a43          	.4byte	0x25203a43
8000099c:	78253a73          	csrrc	s4,0x782,a0
800009a0:	203a                	.2byte	0x203a
800009a2:	2074756f          	jal	a0,800483a8 <__free_ram+0x73a8>
800009a6:	6d20666f          	jal	a2,80007078 <_binary_shell_bin_start+0x65ec>
800009aa:	6d65                	.2byte	0x6d65
800009ac:	0a79726f          	jal	tp,80098252 <__free_ram+0x57252>
800009b0:	0000                	.2byte	0x0
800009b2:	0000                	.2byte	0x0
800009b4:	4150                	.2byte	0x4150
800009b6:	494e                	.2byte	0x494e
800009b8:	25203a43          	.4byte	0x25203a43
800009bc:	78253a73          	csrrc	s4,0x782,a0
800009c0:	203a                	.2byte	0x203a
800009c2:	6f6e                	.2byte	0x6f6e
800009c4:	6620                	.2byte	0x6620
800009c6:	6572                	.2byte	0x6572
800009c8:	2065                	.2byte	0x2065
800009ca:	7270                	.2byte	0x7270
800009cc:	7365636f          	jal	t1,80057102 <__free_ram+0x16102>
800009d0:	6c732073          	csrs	0x6c7,t1
800009d4:	0a73746f          	jal	s0,8003827a <__bss_end+0x1749a>
800009d8:	0000                	.2byte	0x0
800009da:	0000                	.2byte	0x0
800009dc:	72617473          	csrrc	s0,mhpmevent6h,2
800009e0:	6974                	.2byte	0x6974
800009e2:	676e                	.2byte	0x676e
800009e4:	7020                	.2byte	0x7020
800009e6:	6f72                	.2byte	0x6f72
800009e8:	20736563          	bltu	t1,t2,80000bf2 <_binary_shell_bin_start+0x166>
800009ec:	0a41                	.2byte	0xa41
800009ee:	0000                	.2byte	0x0
800009f0:	0041                	.2byte	0x41
800009f2:	0000                	.2byte	0x0
800009f4:	72617473          	csrrc	s0,mhpmevent6h,2
800009f8:	6974                	.2byte	0x6974
800009fa:	676e                	.2byte	0x676e
800009fc:	7020                	.2byte	0x7020
800009fe:	6f72                	.2byte	0x6f72
80000a00:	20736563          	bltu	t1,t2,80000c0a <_binary_shell_bin_start+0x17e>
80000a04:	0a42                	.2byte	0xa42
80000a06:	0000                	.2byte	0x0
80000a08:	0042                	.2byte	0x42
80000a0a:	0000                	.2byte	0x0
80000a0c:	0a0a                	.2byte	0xa0a
80000a0e:	0000                	.2byte	0x0
80000a10:	4150                	.2byte	0x4150
80000a12:	494e                	.2byte	0x494e
80000a14:	25203a43          	.4byte	0x25203a43
80000a18:	78253a73          	csrrc	s4,0x782,a0
80000a1c:	203a                	.2byte	0x203a
80000a1e:	74697773          	csrrc	a4,0x746,18
80000a22:	64656863          	bltu	a0,t1,80001072 <_binary_shell_bin_start+0x5e6>
80000a26:	7420                	.2byte	0x7420
80000a28:	6469206f          	j	8009306e <__free_ram+0x5206e>
80000a2c:	656c                	.2byte	0x656c
80000a2e:	7020                	.2byte	0x7020
80000a30:	6f72                	.2byte	0x6f72
80000a32:	73736563          	bltu	t1,s7,8000115c <_binary_shell_bin_start+0x6d0>
80000a36:	000a                	.2byte	0xa
80000a38:	4150                	.2byte	0x4150
80000a3a:	494e                	.2byte	0x494e
80000a3c:	25203a43          	.4byte	0x25203a43
80000a40:	78253a73          	csrrc	s4,0x782,a0
80000a44:	203a                	.2byte	0x203a
80000a46:	6e75                	.2byte	0x6e75
80000a48:	7865                	.2byte	0x7865
80000a4a:	6570                	.2byte	0x6570
80000a4c:	64657463          	bgeu	a0,t1,80001094 <_binary_shell_bin_start+0x608>
80000a50:	7420                	.2byte	0x7420
80000a52:	6172                	.2byte	0x6172
80000a54:	2070                	.2byte	0x2070
80000a56:	75616373          	csrrs	t1,0x756,2
80000a5a:	253d6573          	csrrs	a0,0x253,26
80000a5e:	2c70                	.2byte	0x2c70
80000a60:	7320                	.2byte	0x7320
80000a62:	7674                	.2byte	0x7674
80000a64:	6c61                	.2byte	0x6c61
80000a66:	253d                	.2byte	0x253d
80000a68:	2c70                	.2byte	0x2c70
80000a6a:	7320                	.2byte	0x7320
80000a6c:	7065                	.2byte	0x7065
80000a6e:	70253d63          	.4byte	0x70253d63
80000a72:	0a0a                	.2byte	0xa0a
80000a74:	0000                	.2byte	0x0
80000a76:	0000                	.2byte	0x0
80000a78:	3130                	.2byte	0x3130
80000a7a:	3332                	.2byte	0x3332
80000a7c:	3534                	.2byte	0x3534
80000a7e:	3736                	.2byte	0x3736
80000a80:	3938                	.2byte	0x3938
80000a82:	6261                	.2byte	0x6261
80000a84:	66656463          	bltu	a0,t1,800010ec <_binary_shell_bin_start+0x660>
	...

Disassembly of section .data:

80000a8c <_binary_shell_bin_start>:
80000a8c:	010107b7          	lui	a5,0x1010
80000a90:	2c078793          	add	a5,a5,704 # 10102c0 <_binary_shell_bin_size+0x1000000>
80000a94:	00078113          	mv	sp,a5
80000a98:	008000ef          	jal	80000aa0 <_binary_shell_bin_start+0x14>
80000a9c:	008000ef          	jal	80000aa4 <_binary_shell_bin_start+0x18>
80000aa0:	0000006f          	j	80000aa0 <_binary_shell_bin_start+0x14>
80000aa4:	0000006f          	j	80000aa4 <_binary_shell_bin_start+0x18>
80000aa8:	00008067          	ret
80000aac:	00060c63          	beqz	a2,80000ac4 <_binary_shell_bin_start+0x38>
80000ab0:	00c50633          	add	a2,a0,a2
80000ab4:	00050793          	mv	a5,a0
80000ab8:	00178793          	add	a5,a5,1
80000abc:	feb78fa3          	sb	a1,-1(a5)
80000ac0:	fec79ce3          	bne	a5,a2,80000ab8 <_binary_shell_bin_start+0x2c>
80000ac4:	00008067          	ret
80000ac8:	02060063          	beqz	a2,80000ae8 <_binary_shell_bin_start+0x5c>
80000acc:	00c50633          	add	a2,a0,a2
80000ad0:	00050793          	mv	a5,a0
80000ad4:	0005c703          	lbu	a4,0(a1)
80000ad8:	00178793          	add	a5,a5,1
80000adc:	00158593          	add	a1,a1,1
80000ae0:	fee78fa3          	sb	a4,-1(a5)
80000ae4:	fec798e3          	bne	a5,a2,80000ad4 <_binary_shell_bin_start+0x48>
80000ae8:	00008067          	ret
80000aec:	0005c783          	lbu	a5,0(a1)
80000af0:	00050713          	mv	a4,a0
80000af4:	00078c63          	beqz	a5,80000b0c <_binary_shell_bin_start+0x80>
80000af8:	00f70023          	sb	a5,0(a4)
80000afc:	0015c783          	lbu	a5,1(a1)
80000b00:	00158593          	add	a1,a1,1
80000b04:	00170713          	add	a4,a4,1
80000b08:	fe0798e3          	bnez	a5,80000af8 <_binary_shell_bin_start+0x6c>
80000b0c:	00070023          	sb	zero,0(a4)
80000b10:	00008067          	ret
80000b14:	00054783          	lbu	a5,0(a0)
80000b18:	00079c63          	bnez	a5,80000b30 <_binary_shell_bin_start+0xa4>
80000b1c:	0380006f          	j	80000b54 <_binary_shell_bin_start+0xc8>
80000b20:	02f71063          	bne	a4,a5,80000b40 <_binary_shell_bin_start+0xb4>
80000b24:	00054783          	lbu	a5,0(a0)
80000b28:	02078063          	beqz	a5,80000b48 <_binary_shell_bin_start+0xbc>
80000b2c:	00068593          	mv	a1,a3
80000b30:	0005c703          	lbu	a4,0(a1)
80000b34:	00150513          	add	a0,a0,1
80000b38:	00158693          	add	a3,a1,1
80000b3c:	fe0712e3          	bnez	a4,80000b20 <_binary_shell_bin_start+0x94>
80000b40:	40e78533          	sub	a0,a5,a4
80000b44:	00008067          	ret
80000b48:	0015c703          	lbu	a4,1(a1)
80000b4c:	40e78533          	sub	a0,a5,a4
80000b50:	00008067          	ret
80000b54:	0005c703          	lbu	a4,0(a1)
80000b58:	fe9ff06f          	j	80000b40 <_binary_shell_bin_start+0xb4>
80000b5c:	fa010113          	add	sp,sp,-96
80000b60:	02812c23          	sw	s0,56(sp)
80000b64:	04f12a23          	sw	a5,84(sp)
80000b68:	02112e23          	sw	ra,60(sp)
80000b6c:	02912a23          	sw	s1,52(sp)
80000b70:	03212823          	sw	s2,48(sp)
80000b74:	03312623          	sw	s3,44(sp)
80000b78:	03412423          	sw	s4,40(sp)
80000b7c:	03512223          	sw	s5,36(sp)
80000b80:	03612023          	sw	s6,32(sp)
80000b84:	01712e23          	sw	s7,28(sp)
80000b88:	01812c23          	sw	s8,24(sp)
80000b8c:	04b12223          	sw	a1,68(sp)
80000b90:	04c12423          	sw	a2,72(sp)
80000b94:	04d12623          	sw	a3,76(sp)
80000b98:	04e12823          	sw	a4,80(sp)
80000b9c:	05012c23          	sw	a6,88(sp)
80000ba0:	05112e23          	sw	a7,92(sp)
80000ba4:	00050413          	mv	s0,a0
80000ba8:	00054503          	lbu	a0,0(a0)
80000bac:	04410793          	add	a5,sp,68
80000bb0:	00f12223          	sw	a5,4(sp)
80000bb4:	04050263          	beqz	a0,80000bf8 <_binary_shell_bin_start+0x16c>
80000bb8:	02500913          	li	s2,37
80000bbc:	07000993          	li	s3,112
80000bc0:	07300a93          	li	s5,115
80000bc4:	07800a13          	li	s4,120
80000bc8:	0d251c63          	bne	a0,s2,80000ca0 <_binary_shell_bin_start+0x214>
80000bcc:	00144783          	lbu	a5,1(s0)
80000bd0:	0d378c63          	beq	a5,s3,80000ca8 <_binary_shell_bin_start+0x21c>
80000bd4:	04f9ea63          	bltu	s3,a5,80000c28 <_binary_shell_bin_start+0x19c>
80000bd8:	12078e63          	beqz	a5,80000d14 <_binary_shell_bin_start+0x288>
80000bdc:	01279663          	bne	a5,s2,80000be8 <_binary_shell_bin_start+0x15c>
80000be0:	02500513          	li	a0,37
80000be4:	ec5ff0ef          	jal	80000aa8 <_binary_shell_bin_start+0x1c>
80000be8:	00140413          	add	s0,s0,1
80000bec:	00144503          	lbu	a0,1(s0)
80000bf0:	00140413          	add	s0,s0,1
80000bf4:	fc051ae3          	bnez	a0,80000bc8 <_binary_shell_bin_start+0x13c>
80000bf8:	03c12083          	lw	ra,60(sp)
80000bfc:	03812403          	lw	s0,56(sp)
80000c00:	03412483          	lw	s1,52(sp)
80000c04:	03012903          	lw	s2,48(sp)
80000c08:	02c12983          	lw	s3,44(sp)
80000c0c:	02812a03          	lw	s4,40(sp)
80000c10:	02412a83          	lw	s5,36(sp)
80000c14:	02012b03          	lw	s6,32(sp)
80000c18:	01c12b83          	lw	s7,28(sp)
80000c1c:	01812c03          	lw	s8,24(sp)
80000c20:	06010113          	add	sp,sp,96
80000c24:	00008067          	ret
80000c28:	0d578063          	beq	a5,s5,80000ce8 <_binary_shell_bin_start+0x25c>
80000c2c:	fb479ee3          	bne	a5,s4,80000be8 <_binary_shell_bin_start+0x15c>
80000c30:	00412783          	lw	a5,4(sp)
80000c34:	01000b37          	lui	s6,0x1000
80000c38:	00000693          	li	a3,0
80000c3c:	0007a583          	lw	a1,0(a5)
80000c40:	00478793          	add	a5,a5,4
80000c44:	00f12223          	sw	a5,4(sp)
80000c48:	41f5d713          	sra	a4,a1,0x1f
80000c4c:	00b747b3          	xor	a5,a4,a1
80000c50:	40e787b3          	sub	a5,a5,a4
80000c54:	00810b93          	add	s7,sp,8
80000c58:	2acb0b13          	add	s6,s6,684 # 10002ac <_binary_shell_bin_size+0xfeffec>
80000c5c:	00f7f713          	and	a4,a5,15
80000c60:	00eb0733          	add	a4,s6,a4
80000c64:	00074603          	lbu	a2,0(a4)
80000c68:	00068493          	mv	s1,a3
80000c6c:	00168693          	add	a3,a3,1
80000c70:	00db8733          	add	a4,s7,a3
80000c74:	fec70fa3          	sb	a2,-1(a4)
80000c78:	0047d793          	srl	a5,a5,0x4
80000c7c:	fe0790e3          	bnez	a5,80000c5c <_binary_shell_bin_start+0x1d0>
80000c80:	0a05c063          	bltz	a1,80000d20 <_binary_shell_bin_start+0x294>
80000c84:	009b84b3          	add	s1,s7,s1
80000c88:	0004c503          	lbu	a0,0(s1)
80000c8c:	e1dff0ef          	jal	80000aa8 <_binary_shell_bin_start+0x1c>
80000c90:	00048793          	mv	a5,s1
80000c94:	fff48493          	add	s1,s1,-1
80000c98:	fefb98e3          	bne	s7,a5,80000c88 <_binary_shell_bin_start+0x1fc>
80000c9c:	f4dff06f          	j	80000be8 <_binary_shell_bin_start+0x15c>
80000ca0:	e09ff0ef          	jal	80000aa8 <_binary_shell_bin_start+0x1c>
80000ca4:	f49ff06f          	j	80000bec <_binary_shell_bin_start+0x160>
80000ca8:	00412783          	lw	a5,4(sp)
80000cac:	01000b37          	lui	s6,0x1000
80000cb0:	01c00493          	li	s1,28
80000cb4:	0007ab83          	lw	s7,0(a5)
80000cb8:	00478793          	add	a5,a5,4
80000cbc:	00f12223          	sw	a5,4(sp)
80000cc0:	2acb0b13          	add	s6,s6,684 # 10002ac <_binary_shell_bin_size+0xfeffec>
80000cc4:	ffc00c13          	li	s8,-4
80000cc8:	409bd7b3          	sra	a5,s7,s1
80000ccc:	00f7f793          	and	a5,a5,15
80000cd0:	00fb07b3          	add	a5,s6,a5
80000cd4:	0007c503          	lbu	a0,0(a5)
80000cd8:	ffc48493          	add	s1,s1,-4
80000cdc:	dcdff0ef          	jal	80000aa8 <_binary_shell_bin_start+0x1c>
80000ce0:	ff8494e3          	bne	s1,s8,80000cc8 <_binary_shell_bin_start+0x23c>
80000ce4:	f05ff06f          	j	80000be8 <_binary_shell_bin_start+0x15c>
80000ce8:	00412783          	lw	a5,4(sp)
80000cec:	0007a483          	lw	s1,0(a5)
80000cf0:	00478793          	add	a5,a5,4
80000cf4:	00f12223          	sw	a5,4(sp)
80000cf8:	0004c503          	lbu	a0,0(s1)
80000cfc:	ee0506e3          	beqz	a0,80000be8 <_binary_shell_bin_start+0x15c>
80000d00:	00148493          	add	s1,s1,1
80000d04:	da5ff0ef          	jal	80000aa8 <_binary_shell_bin_start+0x1c>
80000d08:	0004c503          	lbu	a0,0(s1)
80000d0c:	fe051ae3          	bnez	a0,80000d00 <_binary_shell_bin_start+0x274>
80000d10:	ed9ff06f          	j	80000be8 <_binary_shell_bin_start+0x15c>
80000d14:	02500513          	li	a0,37
80000d18:	d91ff0ef          	jal	80000aa8 <_binary_shell_bin_start+0x1c>
80000d1c:	eddff06f          	j	80000bf8 <_binary_shell_bin_start+0x16c>
80000d20:	01068793          	add	a5,a3,16
80000d24:	002787b3          	add	a5,a5,sp
80000d28:	02d00713          	li	a4,45
80000d2c:	fee78c23          	sb	a4,-8(a5)
80000d30:	00068493          	mv	s1,a3
80000d34:	f51ff06f          	j	80000c84 <_binary_shell_bin_start+0x1f8>
80000d38:	3130                	.2byte	0x3130
80000d3a:	3332                	.2byte	0x3332
80000d3c:	3534                	.2byte	0x3534
80000d3e:	3736                	.2byte	0x3736
80000d40:	3938                	.2byte	0x3938
80000d42:	6261                	.2byte	0x6261
80000d44:	66656463          	bltu	a0,t1,800013ac <_binary_shell_bin_start+0x920>
	...

Disassembly of section .sdata:

80010d4c <next_paddr.0>:
80010d4c:	1000                	.2byte	0x1000
80010d4e:	8004                	.2byte	0x8004

Disassembly of section .bss:

80010d50 <procs>:
	...

80020dd0 <proc_b>:
80020dd0:	0000                	.2byte	0x0
	...

80020dd4 <proc_a>:
80020dd4:	0000                	.2byte	0x0
	...

80020dd8 <idle_proc>:
80020dd8:	0000                	.2byte	0x0
	...

80020ddc <current_proc>:
80020ddc:	0000                	.2byte	0x0
	...

Disassembly of section .comment:

00000000 <.comment>:
   0:	3a434347          	.4byte	0x3a434347
   4:	2820                	.2byte	0x2820
   6:	65653267          	.4byte	0x65653267
   a:	6535                	.2byte	0x6535
   c:	3334                	.2byte	0x3334
   e:	3030                	.2byte	0x3030
  10:	3831                	.2byte	0x3831
  12:	2029                	.2byte	0x2029
  14:	3231                	.2byte	0x3231
  16:	322e                	.2byte	0x322e
  18:	302e                	.2byte	0x302e
	...

Disassembly of section .riscv.attributes:

00000000 <.riscv.attributes>:
   0:	2841                	.2byte	0x2841
   2:	0000                	.2byte	0x0
   4:	7200                	.2byte	0x7200
   6:	7369                	.2byte	0x7369
   8:	01007663          	bgeu	zero,a6,14 <_binary_shell_bin_size-0x102ac>
   c:	001e                	.2byte	0x1e
   e:	0000                	.2byte	0x0
  10:	1004                	.2byte	0x1004
  12:	7205                	.2byte	0x7205
  14:	3376                	.2byte	0x3376
  16:	6932                	.2byte	0x6932
  18:	7032                	.2byte	0x7032
  1a:	5f31                	.2byte	0x5f31
  1c:	697a                	.2byte	0x697a
  1e:	32727363          	bgeu	tp,t2,344 <_binary_shell_bin_size-0xff7c>
  22:	3070                	.2byte	0x3070
  24:	0800                	.2byte	0x800
  26:	0a01                	.2byte	0xa01
  28:	0b              	Address 0x28 is out of bounds.

