
kernel:     file format elf32-littleriscv


Disassembly of section .text:

80000000 <boot>:
80000000:	800207b7          	lui	a5,0x80020
80000004:	25478793          	add	a5,a5,596 # 80020254 <__stack_top>
80000008:	00078113          	mv	sp,a5
8000000c:	19c0006f          	j	800001a8 <kernel_main>

80000010 <printf>:
80000010:	fb010113          	add	sp,sp,-80
80000014:	02912223          	sw	s1,36(sp)
80000018:	04f12223          	sw	a5,68(sp)
8000001c:	02112623          	sw	ra,44(sp)
80000020:	02812423          	sw	s0,40(sp)
80000024:	03212023          	sw	s2,32(sp)
80000028:	01312e23          	sw	s3,28(sp)
8000002c:	01412c23          	sw	s4,24(sp)
80000030:	01512a23          	sw	s5,20(sp)
80000034:	02b12a23          	sw	a1,52(sp)
80000038:	02c12c23          	sw	a2,56(sp)
8000003c:	02d12e23          	sw	a3,60(sp)
80000040:	04e12023          	sw	a4,64(sp)
80000044:	05012423          	sw	a6,72(sp)
80000048:	05112623          	sw	a7,76(sp)
8000004c:	00050493          	mv	s1,a0
80000050:	00054503          	lbu	a0,0(a0)
80000054:	03410793          	add	a5,sp,52
80000058:	00f12223          	sw	a5,4(sp)
8000005c:	04050063          	beqz	a0,8000009c <printf+0x8c>
80000060:	02500913          	li	s2,37
80000064:	07300993          	li	s3,115
80000068:	07800a13          	li	s4,120
8000006c:	0d251463          	bne	a0,s2,80000134 <printf+0x124>
80000070:	0014c783          	lbu	a5,1(s1)
80000074:	0d378a63          	beq	a5,s3,80000148 <printf+0x138>
80000078:	04f9e463          	bltu	s3,a5,800000c0 <printf+0xb0>
8000007c:	0c078063          	beqz	a5,8000013c <printf+0x12c>
80000080:	01279663          	bne	a5,s2,8000008c <printf+0x7c>
80000084:	02500513          	li	a0,37
80000088:	17c000ef          	jal	80000204 <putchar>
8000008c:	00148493          	add	s1,s1,1
80000090:	0014c503          	lbu	a0,1(s1)
80000094:	00148493          	add	s1,s1,1
80000098:	fc051ae3          	bnez	a0,8000006c <printf+0x5c>
8000009c:	02c12083          	lw	ra,44(sp)
800000a0:	02812403          	lw	s0,40(sp)
800000a4:	02412483          	lw	s1,36(sp)
800000a8:	02012903          	lw	s2,32(sp)
800000ac:	01c12983          	lw	s3,28(sp)
800000b0:	01812a03          	lw	s4,24(sp)
800000b4:	01412a83          	lw	s5,20(sp)
800000b8:	05010113          	add	sp,sp,80
800000bc:	00008067          	ret
800000c0:	fd4796e3          	bne	a5,s4,8000008c <printf+0x7c>
800000c4:	00412783          	lw	a5,4(sp)
800000c8:	800005b7          	lui	a1,0x80000
800000cc:	00000693          	li	a3,0
800000d0:	0007a503          	lw	a0,0(a5)
800000d4:	00478793          	add	a5,a5,4
800000d8:	00f12223          	sw	a5,4(sp)
800000dc:	41f55713          	sra	a4,a0,0x1f
800000e0:	00a747b3          	xor	a5,a4,a0
800000e4:	40e787b3          	sub	a5,a5,a4
800000e8:	00810a93          	add	s5,sp,8
800000ec:	21c58593          	add	a1,a1,540 # 8000021c <putchar+0x18>
800000f0:	00f7f713          	and	a4,a5,15
800000f4:	00e58733          	add	a4,a1,a4
800000f8:	00074603          	lbu	a2,0(a4)
800000fc:	00068413          	mv	s0,a3
80000100:	00168693          	add	a3,a3,1
80000104:	00da8733          	add	a4,s5,a3
80000108:	fec70fa3          	sb	a2,-1(a4)
8000010c:	0047d793          	srl	a5,a5,0x4
80000110:	fe0790e3          	bnez	a5,800000f0 <printf+0xe0>
80000114:	06054063          	bltz	a0,80000174 <printf+0x164>
80000118:	008a8433          	add	s0,s5,s0
8000011c:	00044503          	lbu	a0,0(s0)
80000120:	0e4000ef          	jal	80000204 <putchar>
80000124:	00040793          	mv	a5,s0
80000128:	fff40413          	add	s0,s0,-1
8000012c:	fefa98e3          	bne	s5,a5,8000011c <printf+0x10c>
80000130:	f5dff06f          	j	8000008c <printf+0x7c>
80000134:	0d0000ef          	jal	80000204 <putchar>
80000138:	f59ff06f          	j	80000090 <printf+0x80>
8000013c:	02500513          	li	a0,37
80000140:	0c4000ef          	jal	80000204 <putchar>
80000144:	f59ff06f          	j	8000009c <printf+0x8c>
80000148:	00412783          	lw	a5,4(sp)
8000014c:	0007a403          	lw	s0,0(a5)
80000150:	00478793          	add	a5,a5,4
80000154:	00f12223          	sw	a5,4(sp)
80000158:	00044503          	lbu	a0,0(s0)
8000015c:	f20508e3          	beqz	a0,8000008c <printf+0x7c>
80000160:	00140413          	add	s0,s0,1
80000164:	0a0000ef          	jal	80000204 <putchar>
80000168:	00044503          	lbu	a0,0(s0)
8000016c:	fe051ae3          	bnez	a0,80000160 <printf+0x150>
80000170:	f1dff06f          	j	8000008c <printf+0x7c>
80000174:	01068793          	add	a5,a3,16
80000178:	002787b3          	add	a5,a5,sp
8000017c:	02d00713          	li	a4,45
80000180:	fee78c23          	sb	a4,-8(a5)
80000184:	00068413          	mv	s0,a3
80000188:	f91ff06f          	j	80000118 <printf+0x108>

8000018c <memset>:
8000018c:	00060c63          	beqz	a2,800001a4 <memset+0x18>
80000190:	00c50633          	add	a2,a0,a2
80000194:	00050793          	mv	a5,a0
80000198:	00178793          	add	a5,a5,1
8000019c:	feb78fa3          	sb	a1,-1(a5)
800001a0:	fec79ce3          	bne	a5,a2,80000198 <memset+0xc>
800001a4:	00008067          	ret

800001a8 <kernel_main>:
800001a8:	ff010113          	add	sp,sp,-16
800001ac:	800007b7          	lui	a5,0x80000
800001b0:	80000737          	lui	a4,0x80000
800001b4:	00112623          	sw	ra,12(sp)
800001b8:	25470713          	add	a4,a4,596 # 80000254 <__bss>
800001bc:	25478693          	add	a3,a5,596 # 80000254 <__bss>
800001c0:	00d70a63          	beq	a4,a3,800001d4 <kernel_main+0x2c>
800001c4:	25478793          	add	a5,a5,596
800001c8:	00178793          	add	a5,a5,1
800001cc:	fe078fa3          	sb	zero,-1(a5)
800001d0:	fee79ce3          	bne	a5,a4,800001c8 <kernel_main+0x20>
800001d4:	800005b7          	lui	a1,0x80000
800001d8:	80000537          	lui	a0,0x80000
800001dc:	23058593          	add	a1,a1,560 # 80000230 <putchar+0x2c>
800001e0:	23850513          	add	a0,a0,568 # 80000238 <putchar+0x34>
800001e4:	e2dff0ef          	jal	80000010 <printf>
800001e8:	80000537          	lui	a0,0x80000
800001ec:	ff600593          	li	a1,-10
800001f0:	24450513          	add	a0,a0,580 # 80000244 <putchar+0x40>
800001f4:	e1dff0ef          	jal	80000010 <printf>
800001f8:	10500073          	wfi
800001fc:	10500073          	wfi
80000200:	ff9ff06f          	j	800001f8 <kernel_main+0x50>

80000204 <putchar>:
80000204:	10000737          	lui	a4,0x10000
80000208:	00574783          	lbu	a5,5(a4) # 10000005 <boot-0x6ffffffb>
8000020c:	0207f793          	and	a5,a5,32
80000210:	fe078ce3          	beqz	a5,80000208 <putchar+0x4>
80000214:	00a70023          	sb	a0,0(a4)
80000218:	00008067          	ret

Disassembly of section .rodata:

8000021c <__bss-0x38>:
8000021c:	3130                	.2byte	0x3130
8000021e:	3332                	.2byte	0x3332
80000220:	3534                	.2byte	0x3534
80000222:	3736                	.2byte	0x3736
80000224:	3938                	.2byte	0x3938
80000226:	6261                	.2byte	0x6261
80000228:	66656463          	bltu	a0,t1,80000890 <__bss+0x63c>
8000022c:	0000                	.2byte	0x0
8000022e:	0000                	.2byte	0x0
80000230:	6c726f57          	.4byte	0x6c726f57
80000234:	2164                	.2byte	0x2164
80000236:	0000                	.2byte	0x0
80000238:	0a0a                	.2byte	0xa0a
8000023a:	6548                	.2byte	0x6548
8000023c:	6c6c                	.2byte	0x6c6c
8000023e:	7325206f          	j	80052970 <__stack_top+0x3271c>
80000242:	000a                	.2byte	0xa
80000244:	2031                	.2byte	0x2031
80000246:	202d                	.2byte	0x202d
80000248:	2035                	.2byte	0x2035
8000024a:	202d                	.2byte	0x202d
8000024c:	2036                	.2byte	0x2036
8000024e:	203d                	.2byte	0x203d
80000250:	7825                	.2byte	0x7825
80000252:	000a                	.2byte	0xa

Disassembly of section .comment:

00000000 <.comment>:
   0:	3a434347          	.4byte	0x3a434347
   4:	2820                	.2byte	0x2820
   6:	65653267          	.4byte	0x65653267
   a:	6535                	.2byte	0x6535
   c:	3334                	.2byte	0x3334
   e:	3030                	.2byte	0x3030
  10:	3831                	.2byte	0x3831
  12:	2029                	.2byte	0x2029
  14:	3231                	.2byte	0x3231
  16:	322e                	.2byte	0x322e
  18:	302e                	.2byte	0x302e
	...

Disassembly of section .riscv.attributes:

00000000 <.riscv.attributes>:
   0:	1f41                	.2byte	0x1f41
   2:	0000                	.2byte	0x0
   4:	7200                	.2byte	0x7200
   6:	7369                	.2byte	0x7369
   8:	01007663          	bgeu	zero,a6,14 <boot-0x7fffffec>
   c:	0015                	.2byte	0x15
   e:	0000                	.2byte	0x0
  10:	1004                	.2byte	0x1004
  12:	7205                	.2byte	0x7205
  14:	3376                	.2byte	0x3376
  16:	6932                	.2byte	0x6932
  18:	7032                	.2byte	0x7032
  1a:	0031                	.2byte	0x31
  1c:	0108                	.2byte	0x108
  1e:	0b0a                	.2byte	0xb0a
